Archive member included to satisfy reference by file (symbol)

C:\GNAT\Ada_Drivers_Library\boards\NRF52_DK\obj\zfp_lib_Debug\libada_drivers_library.a(cortex_m-nvic.o)
                              b__main.o (cortex_m__nvic___elabs)
C:\GNAT\Ada_Drivers_Library\boards\NRF52_DK\obj\zfp_lib_Debug\libada_drivers_library.a(crt0.o)
                              (_start)
C:\GNAT\Ada_Drivers_Library\boards\NRF52_DK\obj\zfp_lib_Debug\libada_drivers_library.a(memory_barriers.o)
                              C:\GNAT\Ada_Drivers_Library\boards\NRF52_DK\obj\zfp_lib_Debug\libada_drivers_library.a(cortex_m-nvic.o) (memory_barriers__data_synchronization_barrier)
C:\GNAT\Ada_Drivers_Library\boards\NRF52_DK\obj\zfp_lib_Debug\libada_drivers_library.a(nrf-clock.o)
                              b__main.o (nrf__clock_E)
C:\GNAT\Ada_Drivers_Library\boards\NRF52_DK\obj\zfp_lib_Debug\libada_drivers_library.a(nrf-device.o)
                              b__main.o (nrf__device___elabb)
C:\GNAT\Ada_Drivers_Library\boards\NRF52_DK\obj\zfp_lib_Debug\libada_drivers_library.a(nrf-events.o)
                              b__main.o (nrf__events_E)
C:\GNAT\Ada_Drivers_Library\boards\NRF52_DK\obj\zfp_lib_Debug\libada_drivers_library.a(nrf-gpio.o)
                              main.o (nrf__gpio__gpio_pointT)
C:\GNAT\Ada_Drivers_Library\boards\NRF52_DK\obj\zfp_lib_Debug\libada_drivers_library.a(nrf-interrupts.o)
                              b__main.o (nrf__interrupts___elabb)
C:\GNAT\Ada_Drivers_Library\boards\NRF52_DK\obj\zfp_lib_Debug\libada_drivers_library.a(nrf-rtc.o)
                              C:\GNAT\Ada_Drivers_Library\boards\NRF52_DK\obj\zfp_lib_Debug\libada_drivers_library.a(nrf-device.o) (nrf__rtc__real_time_counterIP)
C:\GNAT\Ada_Drivers_Library\boards\NRF52_DK\obj\zfp_lib_Debug\libada_drivers_library.a(nrf-spi_master.o)
                              C:\GNAT\Ada_Drivers_Library\boards\NRF52_DK\obj\zfp_lib_Debug\libada_drivers_library.a(nrf-device.o) (nrf__spi_master__spi_masterIP)
C:\GNAT\Ada_Drivers_Library\boards\NRF52_DK\obj\zfp_lib_Debug\libada_drivers_library.a(nrf-tasks.o)
                              C:\GNAT\Ada_Drivers_Library\boards\NRF52_DK\obj\zfp_lib_Debug\libada_drivers_library.a(nrf-clock.o) (nrf__tasks__trigger)
C:\GNAT\Ada_Drivers_Library\boards\NRF52_DK\obj\zfp_lib_Debug\libada_drivers_library.a(nrf-timers.o)
                              C:\GNAT\Ada_Drivers_Library\boards\NRF52_DK\obj\zfp_lib_Debug\libada_drivers_library.a(nrf-device.o) (nrf__timers__timerIP)
C:\GNAT\Ada_Drivers_Library\boards\NRF52_DK\obj\zfp_lib_Debug\libada_drivers_library.a(nrf-twi.o)
                              C:\GNAT\Ada_Drivers_Library\boards\NRF52_DK\obj\zfp_lib_Debug\libada_drivers_library.a(nrf-device.o) (nrf__twi__twi_masterIP)
C:\GNAT\Ada_Drivers_Library\boards\NRF52_DK\obj\zfp_lib_Debug\libada_drivers_library.a(nrf-uart.o)
                              C:\GNAT\Ada_Drivers_Library\boards\NRF52_DK\obj\zfp_lib_Debug\libada_drivers_library.a(nrf-device.o) (nrf__uart__uart_deviceIP)
C:\GNAT\Ada_Drivers_Library\boards\NRF52_DK\obj\zfp_lib_Debug\libada_drivers_library.a(nrf52_dk-buttons.o)
                              b__main.o (nrf52_dk__buttons___elabb)
C:\GNAT\Ada_Drivers_Library\boards\NRF52_DK\obj\zfp_lib_Debug\libada_drivers_library.a(nrf52_dk-leds.o)
                              main.o (nrf52_dk__leds__initialize_leds)
C:\GNAT\Ada_Drivers_Library\boards\NRF52_DK\obj\zfp_lib_Debug\libada_drivers_library.a(nrf52_dk-time.o)
                              main.o (nrf52_dk__time__delay_ms)
C:\GNAT\Ada_Drivers_Library\boards\NRF52_DK\obj\zfp_lib_Debug\libada_drivers_library.a(nrf_svd-gpio.o)
                              C:\GNAT\Ada_Drivers_Library\boards\NRF52_DK\obj\zfp_lib_Debug\libada_drivers_library.a(nrf-gpio.o) (nrf_svd__gpio__pin_cnf_pull_fieldRP)
C:\GNAT\Ada_Drivers_Library\boards\NRF52_DK\obj\zfp_lib_Debug\libada_drivers_library.a(nrf_svd-twi.o)
                              C:\GNAT\Ada_Drivers_Library\boards\NRF52_DK\obj\zfp_lib_Debug\libada_drivers_library.a(nrf-twi.o) (nrf_svd__twi__errorsrc_registerIP)
C:\GNAT\Ada_Drivers_Library\boards\NRF52_DK\obj\zfp_lib_Debug\libada_drivers_library.a(hal-gpio.o)
                              C:\GNAT\Ada_Drivers_Library\boards\NRF52_DK\obj\zfp_lib_Debug\libada_drivers_library.a(nrf-gpio.o) (hal__gpio__gpio_pointT)
C:\GNAT\Ada_Drivers_Library\boards\NRF52_DK\obj\zfp_lib_Debug\libada_drivers_library.a(hal-i2c.o)
                              C:\GNAT\Ada_Drivers_Library\boards\NRF52_DK\obj\zfp_lib_Debug\libada_drivers_library.a(nrf-twi.o) (hal__i2c__i2c_portT)
C:\GNAT\Ada_Drivers_Library\boards\NRF52_DK\obj\zfp_lib_Debug\libada_drivers_library.a(hal-spi.o)
                              C:\GNAT\Ada_Drivers_Library\boards\NRF52_DK\obj\zfp_lib_Debug\libada_drivers_library.a(nrf-spi_master.o) (hal__spi__spi_portT)
C:\GNAT\Ada_Drivers_Library\boards\NRF52_DK\obj\zfp_lib_Debug\libada_drivers_library.a(hal-time.o)
                              C:\GNAT\Ada_Drivers_Library\boards\NRF52_DK\obj\zfp_lib_Debug\libada_drivers_library.a(nrf52_dk-time.o) (hal__time__delaysT)
C:\GNAT\Ada_Drivers_Library\boards\NRF52_DK\obj\zfp_lib_Debug\libada_drivers_library.a(hal-uart.o)
                              C:\GNAT\Ada_Drivers_Library\boards\NRF52_DK\obj\zfp_lib_Debug\libada_drivers_library.a(nrf-uart.o) (hal__uart__uart_portT)
C:\gnat\2020-arm-elf\arm-eabi\lib\gnat\zfp-cortex-m4f\adalib\libgnat.a(a-elchha.o)
                              C:\GNAT\Ada_Drivers_Library\boards\NRF52_DK\obj\zfp_lib_Debug\libada_drivers_library.a(cortex_m-nvic.o) (__gnat_last_chance_handler)
C:\gnat\2020-arm-elf\arm-eabi\lib\gnat\zfp-cortex-m4f\adalib\libgnat.a(breakpoint_handler-cortexm.o)
                              C:\GNAT\Ada_Drivers_Library\boards\NRF52_DK\obj\zfp_lib_Debug\libada_drivers_library.a(crt0.o) (__gnat_bkpt_trap)
C:\gnat\2020-arm-elf\arm-eabi\lib\gnat\zfp-cortex-m4f\adalib\libgnat.a(g-io.o)
                              C:\gnat\2020-arm-elf\arm-eabi\lib\gnat\zfp-cortex-m4f\adalib\libgnat.a(a-elchha.o) (gnat__io__put__2)
C:\gnat\2020-arm-elf\arm-eabi\lib\gnat\zfp-cortex-m4f\adalib\libgnat.a(s-assert.o)
                              C:\GNAT\Ada_Drivers_Library\boards\NRF52_DK\obj\zfp_lib_Debug\libada_drivers_library.a(nrf-gpio.o) (system__assertions__raise_assert_failure)
C:\gnat\2020-arm-elf\arm-eabi\lib\gnat\zfp-cortex-m4f\adalib\libgnat.a(s-macres.o)
                              C:\GNAT\Ada_Drivers_Library\boards\NRF52_DK\obj\zfp_lib_Debug\libada_drivers_library.a(crt0.o) (_exit)
C:\gnat\2020-arm-elf\arm-eabi\lib\gnat\zfp-cortex-m4f\adalib\libgnat.a(s-memcop.o)
                              C:\gnat\2020-arm-elf\arm-eabi\lib\gnat\zfp-cortex-m4f\adalib\libgnat.a(s-assert.o) (memcpy)
C:\gnat\2020-arm-elf\arm-eabi\lib\gnat\zfp-cortex-m4f\adalib\libgnat.a(s-memset.o)
                              C:\GNAT\Ada_Drivers_Library\boards\NRF52_DK\obj\zfp_lib_Debug\libada_drivers_library.a(nrf-interrupts.o) (memset)
C:\gnat\2020-arm-elf\arm-eabi\lib\gnat\zfp-cortex-m4f\adalib\libgnat.a(s-secsta.o)
                              b__main.o (system__secondary_stack__ss_stackIP)
C:\gnat\2020-arm-elf\arm-eabi\lib\gnat\zfp-cortex-m4f\adalib\libgnat.a(s-sssita.o)
                              C:\gnat\2020-arm-elf\arm-eabi\lib\gnat\zfp-cortex-m4f\adalib\libgnat.a(s-secsta.o) (__gnat_get_secondary_stack)
C:\gnat\2020-arm-elf\arm-eabi\lib\gnat\zfp-cortex-m4f\adalib\libgnat.a(s-textio.o)
                              C:\gnat\2020-arm-elf\arm-eabi\lib\gnat\zfp-cortex-m4f\adalib\libgnat.a(g-io.o) (system__text_io__initialize)
C:\gnat\2020-arm-elf\arm-eabi\lib\gnat\zfp-cortex-m4f\adalib\libgnat.a(a-except.o)
                              C:\gnat\2020-arm-elf\arm-eabi\lib\gnat\zfp-cortex-m4f\adalib\libgnat.a(s-assert.o) (ada__exceptions__empty_c_string___UNC)
C:\gnat\2020-arm-elf\arm-eabi\lib\gnat\zfp-cortex-m4f\adalib\libgnat.a(s-semiho.o)
                              C:\gnat\2020-arm-elf\arm-eabi\lib\gnat\zfp-cortex-m4f\adalib\libgnat.a(s-textio.o) (system__semihosting__put)

Discarded input sections

 .text          0x0000000000000000        0x0 main.o
 .data          0x0000000000000000        0x0 main.o
 .bss           0x0000000000000000        0x0 main.o
 .text          0x0000000000000000        0x0 b__main.o
 .data          0x0000000000000000        0x0 b__main.o
 .bss           0x0000000000000000        0x0 b__main.o
 .data.ada_main_E
                0x0000000000000000        0x2 b__main.o
 .rodata.__gnat_version
                0x0000000000000000       0x2b b__main.o
 .text          0x0000000000000000        0x0 C:\GNAT\Ada_Drivers_Library\boards\NRF52_DK\obj\zfp_lib_Debug\libada_drivers_library.a(cortex_m-nvic.o)
 .data          0x0000000000000000        0x0 C:\GNAT\Ada_Drivers_Library\boards\NRF52_DK\obj\zfp_lib_Debug\libada_drivers_library.a(cortex_m-nvic.o)
 .bss           0x0000000000000000        0x0 C:\GNAT\Ada_Drivers_Library\boards\NRF52_DK\obj\zfp_lib_Debug\libada_drivers_library.a(cortex_m-nvic.o)
 .text.cortex_m__nvic__uint8sIP
                0x0000000000000000       0x14 C:\GNAT\Ada_Drivers_Library\boards\NRF52_DK\obj\zfp_lib_Debug\libada_drivers_library.a(cortex_m-nvic.o)
 .text.cortex_m__nvic__wordsIP
                0x0000000000000000       0x14 C:\GNAT\Ada_Drivers_Library\boards\NRF52_DK\obj\zfp_lib_Debug\libada_drivers_library.a(cortex_m-nvic.o)
 .text.cortex_m__nvic__system_control_blockIP
                0x0000000000000000       0x14 C:\GNAT\Ada_Drivers_Library\boards\NRF52_DK\obj\zfp_lib_Debug\libada_drivers_library.a(cortex_m-nvic.o)
 .text.cortex_m__nvic__nested_vectored_interrupt_controllerIP
                0x0000000000000000       0x14 C:\GNAT\Ada_Drivers_Library\boards\NRF52_DK\obj\zfp_lib_Debug\libada_drivers_library.a(cortex_m-nvic.o)
 .text.cortex_m__nvic__priority_grouping
                0x0000000000000000       0x20 C:\GNAT\Ada_Drivers_Library\boards\NRF52_DK\obj\zfp_lib_Debug\libada_drivers_library.a(cortex_m-nvic.o)
 .text.cortex_m__nvic__set_priority_grouping
                0x0000000000000000       0x48 C:\GNAT\Ada_Drivers_Library\boards\NRF52_DK\obj\zfp_lib_Debug\libada_drivers_library.a(cortex_m-nvic.o)
 .text.cortex_m__nvic__set_priority
                0x0000000000000000       0x50 C:\GNAT\Ada_Drivers_Library\boards\NRF52_DK\obj\zfp_lib_Debug\libada_drivers_library.a(cortex_m-nvic.o)
 .text.cortex_m__nvic__encoded_priority
                0x0000000000000000       0xd4 C:\GNAT\Ada_Drivers_Library\boards\NRF52_DK\obj\zfp_lib_Debug\libada_drivers_library.a(cortex_m-nvic.o)
 .text.cortex_m__nvic__set_priority__2
                0x0000000000000000       0x2c C:\GNAT\Ada_Drivers_Library\boards\NRF52_DK\obj\zfp_lib_Debug\libada_drivers_library.a(cortex_m-nvic.o)
 .text.cortex_m__nvic__disable_interrupt
                0x0000000000000000       0x68 C:\GNAT\Ada_Drivers_Library\boards\NRF52_DK\obj\zfp_lib_Debug\libada_drivers_library.a(cortex_m-nvic.o)
 .text.cortex_m__nvic__active
                0x0000000000000000       0x7c C:\GNAT\Ada_Drivers_Library\boards\NRF52_DK\obj\zfp_lib_Debug\libada_drivers_library.a(cortex_m-nvic.o)
 .text.cortex_m__nvic__pending
                0x0000000000000000       0x7c C:\GNAT\Ada_Drivers_Library\boards\NRF52_DK\obj\zfp_lib_Debug\libada_drivers_library.a(cortex_m-nvic.o)
 .text.cortex_m__nvic__set_pending
                0x0000000000000000       0x68 C:\GNAT\Ada_Drivers_Library\boards\NRF52_DK\obj\zfp_lib_Debug\libada_drivers_library.a(cortex_m-nvic.o)
 .text.cortex_m__nvic__clear_pending
                0x0000000000000000       0x68 C:\GNAT\Ada_Drivers_Library\boards\NRF52_DK\obj\zfp_lib_Debug\libada_drivers_library.a(cortex_m-nvic.o)
 .text.cortex_m__nvic__reset_system
                0x0000000000000000       0x28 C:\GNAT\Ada_Drivers_Library\boards\NRF52_DK\obj\zfp_lib_Debug\libada_drivers_library.a(cortex_m-nvic.o)
 .rodata.cortex_m__nvic__priority_group_0
                0x0000000000000000        0x4 C:\GNAT\Ada_Drivers_Library\boards\NRF52_DK\obj\zfp_lib_Debug\libada_drivers_library.a(cortex_m-nvic.o)
 .rodata.cortex_m__nvic__priority_group_1
                0x0000000000000000        0x4 C:\GNAT\Ada_Drivers_Library\boards\NRF52_DK\obj\zfp_lib_Debug\libada_drivers_library.a(cortex_m-nvic.o)
 .rodata.cortex_m__nvic__priority_group_2
                0x0000000000000000        0x4 C:\GNAT\Ada_Drivers_Library\boards\NRF52_DK\obj\zfp_lib_Debug\libada_drivers_library.a(cortex_m-nvic.o)
 .rodata.cortex_m__nvic__priority_group_3
                0x0000000000000000        0x4 C:\GNAT\Ada_Drivers_Library\boards\NRF52_DK\obj\zfp_lib_Debug\libada_drivers_library.a(cortex_m-nvic.o)
 .rodata.cortex_m__nvic__priority_group_4
                0x0000000000000000        0x4 C:\GNAT\Ada_Drivers_Library\boards\NRF52_DK\obj\zfp_lib_Debug\libada_drivers_library.a(cortex_m-nvic.o)
 .rodata.cortex_m__nvic__scb_aircr_prigroup_mask
                0x0000000000000000        0x4 C:\GNAT\Ada_Drivers_Library\boards\NRF52_DK\obj\zfp_lib_Debug\libada_drivers_library.a(cortex_m-nvic.o)
 .rodata.cortex_m__nvic__scb_aircr_vectkey_mask
                0x0000000000000000        0x4 C:\GNAT\Ada_Drivers_Library\boards\NRF52_DK\obj\zfp_lib_Debug\libada_drivers_library.a(cortex_m-nvic.o)
 .rodata.cortex_m__nvic__scb_aircr_sysresetreq_mask
                0x0000000000000000        0x4 C:\GNAT\Ada_Drivers_Library\boards\NRF52_DK\obj\zfp_lib_Debug\libada_drivers_library.a(cortex_m-nvic.o)
 .rodata.cortex_m__nvic__scb
                0x0000000000000000        0x4 C:\GNAT\Ada_Drivers_Library\boards\NRF52_DK\obj\zfp_lib_Debug\libada_drivers_library.a(cortex_m-nvic.o)
 .rodata.cortex_m__nvic__nvic
                0x0000000000000000        0x4 C:\GNAT\Ada_Drivers_Library\boards\NRF52_DK\obj\zfp_lib_Debug\libada_drivers_library.a(cortex_m-nvic.o)
 .data          0x0000000000000000        0x0 C:\GNAT\Ada_Drivers_Library\boards\NRF52_DK\obj\zfp_lib_Debug\libada_drivers_library.a(crt0.o)
 .bss           0x0000000000000000        0x0 C:\GNAT\Ada_Drivers_Library\boards\NRF52_DK\obj\zfp_lib_Debug\libada_drivers_library.a(crt0.o)
 .text          0x0000000000000000        0x0 C:\GNAT\Ada_Drivers_Library\boards\NRF52_DK\obj\zfp_lib_Debug\libada_drivers_library.a(memory_barriers.o)
 .data          0x0000000000000000        0x0 C:\GNAT\Ada_Drivers_Library\boards\NRF52_DK\obj\zfp_lib_Debug\libada_drivers_library.a(memory_barriers.o)
 .bss           0x0000000000000000        0x0 C:\GNAT\Ada_Drivers_Library\boards\NRF52_DK\obj\zfp_lib_Debug\libada_drivers_library.a(memory_barriers.o)
 .text.memory_barriers__data_synchronization_barrier
                0x0000000000000000       0x10 C:\GNAT\Ada_Drivers_Library\boards\NRF52_DK\obj\zfp_lib_Debug\libada_drivers_library.a(memory_barriers.o)
 .text          0x0000000000000000        0x0 C:\GNAT\Ada_Drivers_Library\boards\NRF52_DK\obj\zfp_lib_Debug\libada_drivers_library.a(nrf-clock.o)
 .data          0x0000000000000000        0x0 C:\GNAT\Ada_Drivers_Library\boards\NRF52_DK\obj\zfp_lib_Debug\libada_drivers_library.a(nrf-clock.o)
 .bss           0x0000000000000000        0x0 C:\GNAT\Ada_Drivers_Library\boards\NRF52_DK\obj\zfp_lib_Debug\libada_drivers_library.a(nrf-clock.o)
 .text.nrf__clock__set_high_freq_external_frequency
                0x0000000000000000       0x18 C:\GNAT\Ada_Drivers_Library\boards\NRF52_DK\obj\zfp_lib_Debug\libada_drivers_library.a(nrf-clock.o)
 .text.nrf__clock__set_high_freq_source
                0x0000000000000000       0x4c C:\GNAT\Ada_Drivers_Library\boards\NRF52_DK\obj\zfp_lib_Debug\libada_drivers_library.a(nrf-clock.o)
 .text.nrf__clock__high_freq_source
                0x0000000000000000       0x34 C:\GNAT\Ada_Drivers_Library\boards\NRF52_DK\obj\zfp_lib_Debug\libada_drivers_library.a(nrf-clock.o)
 .text.nrf__clock__high_freq_running
                0x0000000000000000       0x30 C:\GNAT\Ada_Drivers_Library\boards\NRF52_DK\obj\zfp_lib_Debug\libada_drivers_library.a(nrf-clock.o)
 .text.nrf__clock__start_high_freq
                0x0000000000000000       0x10 C:\GNAT\Ada_Drivers_Library\boards\NRF52_DK\obj\zfp_lib_Debug\libada_drivers_library.a(nrf-clock.o)
 .text.nrf__clock__stop_high_freq
                0x0000000000000000       0x10 C:\GNAT\Ada_Drivers_Library\boards\NRF52_DK\obj\zfp_lib_Debug\libada_drivers_library.a(nrf-clock.o)
 .text.nrf__clock__low_freq_source
                0x0000000000000000       0x40 C:\GNAT\Ada_Drivers_Library\boards\NRF52_DK\obj\zfp_lib_Debug\libada_drivers_library.a(nrf-clock.o)
 .text.nrf__clock__stop_low_freq
                0x0000000000000000       0x10 C:\GNAT\Ada_Drivers_Library\boards\NRF52_DK\obj\zfp_lib_Debug\libada_drivers_library.a(nrf-clock.o)
 .text          0x0000000000000000        0x0 C:\GNAT\Ada_Drivers_Library\boards\NRF52_DK\obj\zfp_lib_Debug\libada_drivers_library.a(nrf-device.o)
 .data          0x0000000000000000        0x0 C:\GNAT\Ada_Drivers_Library\boards\NRF52_DK\obj\zfp_lib_Debug\libada_drivers_library.a(nrf-device.o)
 .bss           0x0000000000000000        0x0 C:\GNAT\Ada_Drivers_Library\boards\NRF52_DK\obj\zfp_lib_Debug\libada_drivers_library.a(nrf-device.o)
 .rodata.nrf__device__undocumented_reg_fe0
                0x0000000000000000        0x4 C:\GNAT\Ada_Drivers_Library\boards\NRF52_DK\obj\zfp_lib_Debug\libada_drivers_library.a(nrf-device.o)
 .rodata.nrf__device__undocumented_reg_fe4
                0x0000000000000000        0x4 C:\GNAT\Ada_Drivers_Library\boards\NRF52_DK\obj\zfp_lib_Debug\libada_drivers_library.a(nrf-device.o)
 .rodata.nrf__device__undocumented_reg_fe8
                0x0000000000000000        0x4 C:\GNAT\Ada_Drivers_Library\boards\NRF52_DK\obj\zfp_lib_Debug\libada_drivers_library.a(nrf-device.o)
 .rodata.nrf__device__e12_undocumented_comp_reg_540
                0x0000000000000000        0x4 C:\GNAT\Ada_Drivers_Library\boards\NRF52_DK\obj\zfp_lib_Debug\libada_drivers_library.a(nrf-device.o)
 .rodata.nrf__device__e12_undocumented_ficr_reg_324
                0x0000000000000000        0x4 C:\GNAT\Ada_Drivers_Library\boards\NRF52_DK\obj\zfp_lib_Debug\libada_drivers_library.a(nrf-device.o)
 .rodata.nrf__device__e16_undocumented_reg_074
                0x0000000000000000        0x4 C:\GNAT\Ada_Drivers_Library\boards\NRF52_DK\obj\zfp_lib_Debug\libada_drivers_library.a(nrf-device.o)
 .rodata.nrf__device__e31_undocumented_clock_reg_53c
                0x0000000000000000        0x4 C:\GNAT\Ada_Drivers_Library\boards\NRF52_DK\obj\zfp_lib_Debug\libada_drivers_library.a(nrf-device.o)
 .rodata.nrf__device__e31_undocumented_ficr_reg_244
                0x0000000000000000        0x4 C:\GNAT\Ada_Drivers_Library\boards\NRF52_DK\obj\zfp_lib_Debug\libada_drivers_library.a(nrf-device.o)
 .rodata.nrf__device__e37_undocumented_reg_5a0
                0x0000000000000000        0x4 C:\GNAT\Ada_Drivers_Library\boards\NRF52_DK\obj\zfp_lib_Debug\libada_drivers_library.a(nrf-device.o)
 .rodata.nrf__device__e57_undocumented_nfct_reg_610
                0x0000000000000000        0x4 C:\GNAT\Ada_Drivers_Library\boards\NRF52_DK\obj\zfp_lib_Debug\libada_drivers_library.a(nrf-device.o)
 .rodata.nrf__device__e57_undocumented_nfct_reg_614
                0x0000000000000000        0x4 C:\GNAT\Ada_Drivers_Library\boards\NRF52_DK\obj\zfp_lib_Debug\libada_drivers_library.a(nrf-device.o)
 .rodata.nrf__device__e57_undocumented_nfct_reg_618
                0x0000000000000000        0x4 C:\GNAT\Ada_Drivers_Library\boards\NRF52_DK\obj\zfp_lib_Debug\libada_drivers_library.a(nrf-device.o)
 .rodata.nrf__device__e57_undocumented_nfct_reg_688
                0x0000000000000000        0x4 C:\GNAT\Ada_Drivers_Library\boards\NRF52_DK\obj\zfp_lib_Debug\libada_drivers_library.a(nrf-device.o)
 .rodata.nrf__device__e108_undocumented_reg_ee4
                0x0000000000000000        0x4 C:\GNAT\Ada_Drivers_Library\boards\NRF52_DK\obj\zfp_lib_Debug\libada_drivers_library.a(nrf-device.o)
 .rodata.nrf__device__e108_undocumented_ficr_reg_258
                0x0000000000000000        0x4 C:\GNAT\Ada_Drivers_Library\boards\NRF52_DK\obj\zfp_lib_Debug\libada_drivers_library.a(nrf-device.o)
 .rodata.nrf__device__e182_undocumented_reg_73c
                0x0000000000000000        0x4 C:\GNAT\Ada_Drivers_Library\boards\NRF52_DK\obj\zfp_lib_Debug\libada_drivers_library.a(nrf-device.o)
 .text          0x0000000000000000        0x0 C:\GNAT\Ada_Drivers_Library\boards\NRF52_DK\obj\zfp_lib_Debug\libada_drivers_library.a(nrf-events.o)
 .data          0x0000000000000000        0x0 C:\GNAT\Ada_Drivers_Library\boards\NRF52_DK\obj\zfp_lib_Debug\libada_drivers_library.a(nrf-events.o)
 .bss           0x0000000000000000        0x0 C:\GNAT\Ada_Drivers_Library\boards\NRF52_DK\obj\zfp_lib_Debug\libada_drivers_library.a(nrf-events.o)
 .text.nrf__events__triggered
                0x0000000000000000       0x3c C:\GNAT\Ada_Drivers_Library\boards\NRF52_DK\obj\zfp_lib_Debug\libada_drivers_library.a(nrf-events.o)
 .text.nrf__events__disable_interrupt
                0x0000000000000000       0x70 C:\GNAT\Ada_Drivers_Library\boards\NRF52_DK\obj\zfp_lib_Debug\libada_drivers_library.a(nrf-events.o)
 .text.nrf__events__get_address
                0x0000000000000000       0x18 C:\GNAT\Ada_Drivers_Library\boards\NRF52_DK\obj\zfp_lib_Debug\libada_drivers_library.a(nrf-events.o)
 .text.nrf__events__get_address__2
                0x0000000000000000       0x18 C:\GNAT\Ada_Drivers_Library\boards\NRF52_DK\obj\zfp_lib_Debug\libada_drivers_library.a(nrf-events.o)
 .rodata.nrf__events__power_pofwarn
                0x0000000000000000        0x4 C:\GNAT\Ada_Drivers_Library\boards\NRF52_DK\obj\zfp_lib_Debug\libada_drivers_library.a(nrf-events.o)
 .rodata.nrf__events__clock_hfclkstarted
                0x0000000000000000        0x4 C:\GNAT\Ada_Drivers_Library\boards\NRF52_DK\obj\zfp_lib_Debug\libada_drivers_library.a(nrf-events.o)
 .rodata.nrf__events__clock_lfclkstarted
                0x0000000000000000        0x4 C:\GNAT\Ada_Drivers_Library\boards\NRF52_DK\obj\zfp_lib_Debug\libada_drivers_library.a(nrf-events.o)
 .rodata.nrf__events__clock_done
                0x0000000000000000        0x4 C:\GNAT\Ada_Drivers_Library\boards\NRF52_DK\obj\zfp_lib_Debug\libada_drivers_library.a(nrf-events.o)
 .rodata.nrf__events__clock_ctto
                0x0000000000000000        0x4 C:\GNAT\Ada_Drivers_Library\boards\NRF52_DK\obj\zfp_lib_Debug\libada_drivers_library.a(nrf-events.o)
 .rodata.nrf__events__gpiote_in_0
                0x0000000000000000        0x4 C:\GNAT\Ada_Drivers_Library\boards\NRF52_DK\obj\zfp_lib_Debug\libada_drivers_library.a(nrf-events.o)
 .rodata.nrf__events__gpiote_in_1
                0x0000000000000000        0x4 C:\GNAT\Ada_Drivers_Library\boards\NRF52_DK\obj\zfp_lib_Debug\libada_drivers_library.a(nrf-events.o)
 .rodata.nrf__events__gpiote_in_2
                0x0000000000000000        0x4 C:\GNAT\Ada_Drivers_Library\boards\NRF52_DK\obj\zfp_lib_Debug\libada_drivers_library.a(nrf-events.o)
 .rodata.nrf__events__gpiote_in_3
                0x0000000000000000        0x4 C:\GNAT\Ada_Drivers_Library\boards\NRF52_DK\obj\zfp_lib_Debug\libada_drivers_library.a(nrf-events.o)
 .rodata.nrf__events__gpiote_port
                0x0000000000000000        0x4 C:\GNAT\Ada_Drivers_Library\boards\NRF52_DK\obj\zfp_lib_Debug\libada_drivers_library.a(nrf-events.o)
 .rodata.nrf__events__radio_ready
                0x0000000000000000        0x4 C:\GNAT\Ada_Drivers_Library\boards\NRF52_DK\obj\zfp_lib_Debug\libada_drivers_library.a(nrf-events.o)
 .rodata.nrf__events__radio_address
                0x0000000000000000        0x4 C:\GNAT\Ada_Drivers_Library\boards\NRF52_DK\obj\zfp_lib_Debug\libada_drivers_library.a(nrf-events.o)
 .rodata.nrf__events__radio_payload
                0x0000000000000000        0x4 C:\GNAT\Ada_Drivers_Library\boards\NRF52_DK\obj\zfp_lib_Debug\libada_drivers_library.a(nrf-events.o)
 .rodata.nrf__events__radio_end
                0x0000000000000000        0x4 C:\GNAT\Ada_Drivers_Library\boards\NRF52_DK\obj\zfp_lib_Debug\libada_drivers_library.a(nrf-events.o)
 .rodata.nrf__events__radio_disabled
                0x0000000000000000        0x4 C:\GNAT\Ada_Drivers_Library\boards\NRF52_DK\obj\zfp_lib_Debug\libada_drivers_library.a(nrf-events.o)
 .rodata.nrf__events__radio_devmatch
                0x0000000000000000        0x4 C:\GNAT\Ada_Drivers_Library\boards\NRF52_DK\obj\zfp_lib_Debug\libada_drivers_library.a(nrf-events.o)
 .rodata.nrf__events__radio_devmiss
                0x0000000000000000        0x4 C:\GNAT\Ada_Drivers_Library\boards\NRF52_DK\obj\zfp_lib_Debug\libada_drivers_library.a(nrf-events.o)
 .rodata.nrf__events__radio_rssiend
                0x0000000000000000        0x4 C:\GNAT\Ada_Drivers_Library\boards\NRF52_DK\obj\zfp_lib_Debug\libada_drivers_library.a(nrf-events.o)
 .rodata.nrf__events__radio_bcmatch
                0x0000000000000000        0x4 C:\GNAT\Ada_Drivers_Library\boards\NRF52_DK\obj\zfp_lib_Debug\libada_drivers_library.a(nrf-events.o)
 .rodata.nrf__events__timer_0_compare_0
                0x0000000000000000        0x4 C:\GNAT\Ada_Drivers_Library\boards\NRF52_DK\obj\zfp_lib_Debug\libada_drivers_library.a(nrf-events.o)
 .rodata.nrf__events__timer_0_compare_1
                0x0000000000000000        0x4 C:\GNAT\Ada_Drivers_Library\boards\NRF52_DK\obj\zfp_lib_Debug\libada_drivers_library.a(nrf-events.o)
 .rodata.nrf__events__timer_0_compare_2
                0x0000000000000000        0x4 C:\GNAT\Ada_Drivers_Library\boards\NRF52_DK\obj\zfp_lib_Debug\libada_drivers_library.a(nrf-events.o)
 .rodata.nrf__events__timer_0_compare_3
                0x0000000000000000        0x4 C:\GNAT\Ada_Drivers_Library\boards\NRF52_DK\obj\zfp_lib_Debug\libada_drivers_library.a(nrf-events.o)
 .rodata.nrf__events__timer_1_compare_0
                0x0000000000000000        0x4 C:\GNAT\Ada_Drivers_Library\boards\NRF52_DK\obj\zfp_lib_Debug\libada_drivers_library.a(nrf-events.o)
 .rodata.nrf__events__timer_1_compare_1
                0x0000000000000000        0x4 C:\GNAT\Ada_Drivers_Library\boards\NRF52_DK\obj\zfp_lib_Debug\libada_drivers_library.a(nrf-events.o)
 .rodata.nrf__events__timer_1_compare_2
                0x0000000000000000        0x4 C:\GNAT\Ada_Drivers_Library\boards\NRF52_DK\obj\zfp_lib_Debug\libada_drivers_library.a(nrf-events.o)
 .rodata.nrf__events__timer_1_compare_3
                0x0000000000000000        0x4 C:\GNAT\Ada_Drivers_Library\boards\NRF52_DK\obj\zfp_lib_Debug\libada_drivers_library.a(nrf-events.o)
 .rodata.nrf__events__timer_2_compare_0
                0x0000000000000000        0x4 C:\GNAT\Ada_Drivers_Library\boards\NRF52_DK\obj\zfp_lib_Debug\libada_drivers_library.a(nrf-events.o)
 .rodata.nrf__events__timer_2_compare_1
                0x0000000000000000        0x4 C:\GNAT\Ada_Drivers_Library\boards\NRF52_DK\obj\zfp_lib_Debug\libada_drivers_library.a(nrf-events.o)
 .rodata.nrf__events__timer_2_compare_2
                0x0000000000000000        0x4 C:\GNAT\Ada_Drivers_Library\boards\NRF52_DK\obj\zfp_lib_Debug\libada_drivers_library.a(nrf-events.o)
 .rodata.nrf__events__timer_2_compare_3
                0x0000000000000000        0x4 C:\GNAT\Ada_Drivers_Library\boards\NRF52_DK\obj\zfp_lib_Debug\libada_drivers_library.a(nrf-events.o)
 .rodata.nrf__events__rtc_0_tick
                0x0000000000000000        0x4 C:\GNAT\Ada_Drivers_Library\boards\NRF52_DK\obj\zfp_lib_Debug\libada_drivers_library.a(nrf-events.o)
 .rodata.nrf__events__rtc_0_overflw
                0x0000000000000000        0x4 C:\GNAT\Ada_Drivers_Library\boards\NRF52_DK\obj\zfp_lib_Debug\libada_drivers_library.a(nrf-events.o)
 .rodata.nrf__events__rtc_0_compare_0
                0x0000000000000000        0x4 C:\GNAT\Ada_Drivers_Library\boards\NRF52_DK\obj\zfp_lib_Debug\libada_drivers_library.a(nrf-events.o)
 .rodata.nrf__events__rtc_0_compare_1
                0x0000000000000000        0x4 C:\GNAT\Ada_Drivers_Library\boards\NRF52_DK\obj\zfp_lib_Debug\libada_drivers_library.a(nrf-events.o)
 .rodata.nrf__events__rtc_0_compare_2
                0x0000000000000000        0x4 C:\GNAT\Ada_Drivers_Library\boards\NRF52_DK\obj\zfp_lib_Debug\libada_drivers_library.a(nrf-events.o)
 .rodata.nrf__events__rtc_0_compare_3
                0x0000000000000000        0x4 C:\GNAT\Ada_Drivers_Library\boards\NRF52_DK\obj\zfp_lib_Debug\libada_drivers_library.a(nrf-events.o)
 .rodata.nrf__events__rtc_1_tick
                0x0000000000000000        0x4 C:\GNAT\Ada_Drivers_Library\boards\NRF52_DK\obj\zfp_lib_Debug\libada_drivers_library.a(nrf-events.o)
 .rodata.nrf__events__rtc_1_overflw
                0x0000000000000000        0x4 C:\GNAT\Ada_Drivers_Library\boards\NRF52_DK\obj\zfp_lib_Debug\libada_drivers_library.a(nrf-events.o)
 .rodata.nrf__events__rtc_1_compare_0
                0x0000000000000000        0x4 C:\GNAT\Ada_Drivers_Library\boards\NRF52_DK\obj\zfp_lib_Debug\libada_drivers_library.a(nrf-events.o)
 .rodata.nrf__events__rtc_1_compare_1
                0x0000000000000000        0x4 C:\GNAT\Ada_Drivers_Library\boards\NRF52_DK\obj\zfp_lib_Debug\libada_drivers_library.a(nrf-events.o)
 .rodata.nrf__events__rtc_1_compare_2
                0x0000000000000000        0x4 C:\GNAT\Ada_Drivers_Library\boards\NRF52_DK\obj\zfp_lib_Debug\libada_drivers_library.a(nrf-events.o)
 .rodata.nrf__events__rtc_1_compare_3
                0x0000000000000000        0x4 C:\GNAT\Ada_Drivers_Library\boards\NRF52_DK\obj\zfp_lib_Debug\libada_drivers_library.a(nrf-events.o)
 .rodata.nrf__events__watchdog_timeout
                0x0000000000000000        0x4 C:\GNAT\Ada_Drivers_Library\boards\NRF52_DK\obj\zfp_lib_Debug\libada_drivers_library.a(nrf-events.o)
 .rodata.nrf__events__rng_valrdy
                0x0000000000000000        0x4 C:\GNAT\Ada_Drivers_Library\boards\NRF52_DK\obj\zfp_lib_Debug\libada_drivers_library.a(nrf-events.o)
 .rodata.nrf__events__temperature_datardy
                0x0000000000000000        0x4 C:\GNAT\Ada_Drivers_Library\boards\NRF52_DK\obj\zfp_lib_Debug\libada_drivers_library.a(nrf-events.o)
 .rodata.nrf__events__ecb_end
                0x0000000000000000        0x4 C:\GNAT\Ada_Drivers_Library\boards\NRF52_DK\obj\zfp_lib_Debug\libada_drivers_library.a(nrf-events.o)
 .rodata.nrf__events__ecb_error
                0x0000000000000000        0x4 C:\GNAT\Ada_Drivers_Library\boards\NRF52_DK\obj\zfp_lib_Debug\libada_drivers_library.a(nrf-events.o)
 .rodata.nrf__events__ccm_ksgen_end
                0x0000000000000000        0x4 C:\GNAT\Ada_Drivers_Library\boards\NRF52_DK\obj\zfp_lib_Debug\libada_drivers_library.a(nrf-events.o)
 .rodata.nrf__events__ccm_crypt_end
                0x0000000000000000        0x4 C:\GNAT\Ada_Drivers_Library\boards\NRF52_DK\obj\zfp_lib_Debug\libada_drivers_library.a(nrf-events.o)
 .rodata.nrf__events__ccm_error
                0x0000000000000000        0x4 C:\GNAT\Ada_Drivers_Library\boards\NRF52_DK\obj\zfp_lib_Debug\libada_drivers_library.a(nrf-events.o)
 .rodata.nrf__events__aar_end
                0x0000000000000000        0x4 C:\GNAT\Ada_Drivers_Library\boards\NRF52_DK\obj\zfp_lib_Debug\libada_drivers_library.a(nrf-events.o)
 .rodata.nrf__events__aar_resolved
                0x0000000000000000        0x4 C:\GNAT\Ada_Drivers_Library\boards\NRF52_DK\obj\zfp_lib_Debug\libada_drivers_library.a(nrf-events.o)
 .rodata.nrf__events__aar_notresolved
                0x0000000000000000        0x4 C:\GNAT\Ada_Drivers_Library\boards\NRF52_DK\obj\zfp_lib_Debug\libada_drivers_library.a(nrf-events.o)
 .rodata.nrf__events__spi_0_ready
                0x0000000000000000        0x4 C:\GNAT\Ada_Drivers_Library\boards\NRF52_DK\obj\zfp_lib_Debug\libada_drivers_library.a(nrf-events.o)
 .rodata.nrf__events__spi_1_ready
                0x0000000000000000        0x4 C:\GNAT\Ada_Drivers_Library\boards\NRF52_DK\obj\zfp_lib_Debug\libada_drivers_library.a(nrf-events.o)
 .rodata.nrf__events__twi_0_stopped
                0x0000000000000000        0x4 C:\GNAT\Ada_Drivers_Library\boards\NRF52_DK\obj\zfp_lib_Debug\libada_drivers_library.a(nrf-events.o)
 .rodata.nrf__events__twi_0_rxdrdy
                0x0000000000000000        0x4 C:\GNAT\Ada_Drivers_Library\boards\NRF52_DK\obj\zfp_lib_Debug\libada_drivers_library.a(nrf-events.o)
 .rodata.nrf__events__twi_0_txdent
                0x0000000000000000        0x4 C:\GNAT\Ada_Drivers_Library\boards\NRF52_DK\obj\zfp_lib_Debug\libada_drivers_library.a(nrf-events.o)
 .rodata.nrf__events__twi_0_erro
                0x0000000000000000        0x4 C:\GNAT\Ada_Drivers_Library\boards\NRF52_DK\obj\zfp_lib_Debug\libada_drivers_library.a(nrf-events.o)
 .rodata.nrf__events__twi_0_bb
                0x0000000000000000        0x4 C:\GNAT\Ada_Drivers_Library\boards\NRF52_DK\obj\zfp_lib_Debug\libada_drivers_library.a(nrf-events.o)
 .rodata.nrf__events__twi_0_suspended
                0x0000000000000000        0x4 C:\GNAT\Ada_Drivers_Library\boards\NRF52_DK\obj\zfp_lib_Debug\libada_drivers_library.a(nrf-events.o)
 .rodata.nrf__events__twi_1_stopped
                0x0000000000000000        0x4 C:\GNAT\Ada_Drivers_Library\boards\NRF52_DK\obj\zfp_lib_Debug\libada_drivers_library.a(nrf-events.o)
 .rodata.nrf__events__twi_1_rxdrdy
                0x0000000000000000        0x4 C:\GNAT\Ada_Drivers_Library\boards\NRF52_DK\obj\zfp_lib_Debug\libada_drivers_library.a(nrf-events.o)
 .rodata.nrf__events__twi_1_txdent
                0x0000000000000000        0x4 C:\GNAT\Ada_Drivers_Library\boards\NRF52_DK\obj\zfp_lib_Debug\libada_drivers_library.a(nrf-events.o)
 .rodata.nrf__events__twi_1_erro
                0x0000000000000000        0x4 C:\GNAT\Ada_Drivers_Library\boards\NRF52_DK\obj\zfp_lib_Debug\libada_drivers_library.a(nrf-events.o)
 .rodata.nrf__events__twi_1_bb
                0x0000000000000000        0x4 C:\GNAT\Ada_Drivers_Library\boards\NRF52_DK\obj\zfp_lib_Debug\libada_drivers_library.a(nrf-events.o)
 .rodata.nrf__events__twi_1_suspended
                0x0000000000000000        0x4 C:\GNAT\Ada_Drivers_Library\boards\NRF52_DK\obj\zfp_lib_Debug\libada_drivers_library.a(nrf-events.o)
 .rodata.nrf__events__uart_rxdrdy
                0x0000000000000000        0x4 C:\GNAT\Ada_Drivers_Library\boards\NRF52_DK\obj\zfp_lib_Debug\libada_drivers_library.a(nrf-events.o)
 .rodata.nrf__events__uart_txdrdy
                0x0000000000000000        0x4 C:\GNAT\Ada_Drivers_Library\boards\NRF52_DK\obj\zfp_lib_Debug\libada_drivers_library.a(nrf-events.o)
 .rodata.nrf__events__uart_error
                0x0000000000000000        0x4 C:\GNAT\Ada_Drivers_Library\boards\NRF52_DK\obj\zfp_lib_Debug\libada_drivers_library.a(nrf-events.o)
 .rodata.nrf__events__qdec_samplerdy
                0x0000000000000000        0x4 C:\GNAT\Ada_Drivers_Library\boards\NRF52_DK\obj\zfp_lib_Debug\libada_drivers_library.a(nrf-events.o)
 .rodata.nrf__events__qdec_reportrdy
                0x0000000000000000        0x4 C:\GNAT\Ada_Drivers_Library\boards\NRF52_DK\obj\zfp_lib_Debug\libada_drivers_library.a(nrf-events.o)
 .rodata.nrf__events__qdec_accof
                0x0000000000000000        0x4 C:\GNAT\Ada_Drivers_Library\boards\NRF52_DK\obj\zfp_lib_Debug\libada_drivers_library.a(nrf-events.o)
 .rodata.nrf__events__adc_end
                0x0000000000000000        0x4 C:\GNAT\Ada_Drivers_Library\boards\NRF52_DK\obj\zfp_lib_Debug\libada_drivers_library.a(nrf-events.o)
 .text          0x0000000000000000        0x0 C:\GNAT\Ada_Drivers_Library\boards\NRF52_DK\obj\zfp_lib_Debug\libada_drivers_library.a(nrf-gpio.o)
 .data          0x0000000000000000        0x0 C:\GNAT\Ada_Drivers_Library\boards\NRF52_DK\obj\zfp_lib_Debug\libada_drivers_library.a(nrf-gpio.o)
 .bss           0x0000000000000000        0x0 C:\GNAT\Ada_Drivers_Library\boards\NRF52_DK\obj\zfp_lib_Debug\libada_drivers_library.a(nrf-gpio.o)
 .text.nrf__gpio__gpio_pointIP
                0x0000000000000000       0x28 C:\GNAT\Ada_Drivers_Library\boards\NRF52_DK\obj\zfp_lib_Debug\libada_drivers_library.a(nrf-gpio.o)
 .rodata.nrf__gpio__gpio_pointP
                0x0000000000000000        0x4 C:\GNAT\Ada_Drivers_Library\boards\NRF52_DK\obj\zfp_lib_Debug\libada_drivers_library.a(nrf-gpio.o)
 .rodata.nrf__gpio__gpio_pointY
                0x0000000000000000        0x4 C:\GNAT\Ada_Drivers_Library\boards\NRF52_DK\obj\zfp_lib_Debug\libada_drivers_library.a(nrf-gpio.o)
 .rodata.nrf__gpio__gpio_pointR15s
                0x0000000000000000        0x4 C:\GNAT\Ada_Drivers_Library\boards\NRF52_DK\obj\zfp_lib_Debug\libada_drivers_library.a(nrf-gpio.o)
 .text          0x0000000000000000        0x0 C:\GNAT\Ada_Drivers_Library\boards\NRF52_DK\obj\zfp_lib_Debug\libada_drivers_library.a(nrf-interrupts.o)
 .data          0x0000000000000000        0x0 C:\GNAT\Ada_Drivers_Library\boards\NRF52_DK\obj\zfp_lib_Debug\libada_drivers_library.a(nrf-interrupts.o)
 .bss           0x0000000000000000        0x0 C:\GNAT\Ada_Drivers_Library\boards\NRF52_DK\obj\zfp_lib_Debug\libada_drivers_library.a(nrf-interrupts.o)
 .text.nrf__interrupts__set_priority
                0x0000000000000000       0x1c C:\GNAT\Ada_Drivers_Library\boards\NRF52_DK\obj\zfp_lib_Debug\libada_drivers_library.a(nrf-interrupts.o)
 .text.nrf__interrupts__disable
                0x0000000000000000       0x18 C:\GNAT\Ada_Drivers_Library\boards\NRF52_DK\obj\zfp_lib_Debug\libada_drivers_library.a(nrf-interrupts.o)
 .text.nrf__interrupts__pending
                0x0000000000000000       0x20 C:\GNAT\Ada_Drivers_Library\boards\NRF52_DK\obj\zfp_lib_Debug\libada_drivers_library.a(nrf-interrupts.o)
 .text          0x0000000000000000        0x0 C:\GNAT\Ada_Drivers_Library\boards\NRF52_DK\obj\zfp_lib_Debug\libada_drivers_library.a(nrf-rtc.o)
 .data          0x0000000000000000        0x0 C:\GNAT\Ada_Drivers_Library\boards\NRF52_DK\obj\zfp_lib_Debug\libada_drivers_library.a(nrf-rtc.o)
 .bss           0x0000000000000000        0x0 C:\GNAT\Ada_Drivers_Library\boards\NRF52_DK\obj\zfp_lib_Debug\libada_drivers_library.a(nrf-rtc.o)
 .text.nrf__rtc__counter
                0x0000000000000000       0x24 C:\GNAT\Ada_Drivers_Library\boards\NRF52_DK\obj\zfp_lib_Debug\libada_drivers_library.a(nrf-rtc.o)
 .text.nrf__rtc__event
                0x0000000000000000       0x7c C:\GNAT\Ada_Drivers_Library\boards\NRF52_DK\obj\zfp_lib_Debug\libada_drivers_library.a(nrf-rtc.o)
 .text.nrf__rtc__disable_event
                0x0000000000000000      0x15c C:\GNAT\Ada_Drivers_Library\boards\NRF52_DK\obj\zfp_lib_Debug\libada_drivers_library.a(nrf-rtc.o)
 .text          0x0000000000000000        0x0 C:\GNAT\Ada_Drivers_Library\boards\NRF52_DK\obj\zfp_lib_Debug\libada_drivers_library.a(nrf-spi_master.o)
 .data          0x0000000000000000        0x0 C:\GNAT\Ada_Drivers_Library\boards\NRF52_DK\obj\zfp_lib_Debug\libada_drivers_library.a(nrf-spi_master.o)
 .bss           0x0000000000000000        0x0 C:\GNAT\Ada_Drivers_Library\boards\NRF52_DK\obj\zfp_lib_Debug\libada_drivers_library.a(nrf-spi_master.o)
 .rodata.nrf__spi_master__spi_masterP
                0x0000000000000000        0x4 C:\GNAT\Ada_Drivers_Library\boards\NRF52_DK\obj\zfp_lib_Debug\libada_drivers_library.a(nrf-spi_master.o)
 .rodata.nrf__spi_master__spi_masterY
                0x0000000000000000        0x4 C:\GNAT\Ada_Drivers_Library\boards\NRF52_DK\obj\zfp_lib_Debug\libada_drivers_library.a(nrf-spi_master.o)
 .rodata.nrf__spi_master__spi_masterR28s
                0x0000000000000000        0x4 C:\GNAT\Ada_Drivers_Library\boards\NRF52_DK\obj\zfp_lib_Debug\libada_drivers_library.a(nrf-spi_master.o)
 .text          0x0000000000000000        0x0 C:\GNAT\Ada_Drivers_Library\boards\NRF52_DK\obj\zfp_lib_Debug\libada_drivers_library.a(nrf-tasks.o)
 .data          0x0000000000000000        0x0 C:\GNAT\Ada_Drivers_Library\boards\NRF52_DK\obj\zfp_lib_Debug\libada_drivers_library.a(nrf-tasks.o)
 .bss           0x0000000000000000        0x0 C:\GNAT\Ada_Drivers_Library\boards\NRF52_DK\obj\zfp_lib_Debug\libada_drivers_library.a(nrf-tasks.o)
 .text.nrf__tasks__get_address
                0x0000000000000000       0x18 C:\GNAT\Ada_Drivers_Library\boards\NRF52_DK\obj\zfp_lib_Debug\libada_drivers_library.a(nrf-tasks.o)
 .text.nrf__tasks__get_address__2
                0x0000000000000000       0x18 C:\GNAT\Ada_Drivers_Library\boards\NRF52_DK\obj\zfp_lib_Debug\libada_drivers_library.a(nrf-tasks.o)
 .rodata.nrf__tasks__power_constlat
                0x0000000000000000        0x4 C:\GNAT\Ada_Drivers_Library\boards\NRF52_DK\obj\zfp_lib_Debug\libada_drivers_library.a(nrf-tasks.o)
 .rodata.nrf__tasks__power_lowpwr
                0x0000000000000000        0x4 C:\GNAT\Ada_Drivers_Library\boards\NRF52_DK\obj\zfp_lib_Debug\libada_drivers_library.a(nrf-tasks.o)
 .rodata.nrf__tasks__clock_hfclkstart
                0x0000000000000000        0x4 C:\GNAT\Ada_Drivers_Library\boards\NRF52_DK\obj\zfp_lib_Debug\libada_drivers_library.a(nrf-tasks.o)
 .rodata.nrf__tasks__clock_hfclkstop
                0x0000000000000000        0x4 C:\GNAT\Ada_Drivers_Library\boards\NRF52_DK\obj\zfp_lib_Debug\libada_drivers_library.a(nrf-tasks.o)
 .rodata.nrf__tasks__clock_lfclkstart
                0x0000000000000000        0x4 C:\GNAT\Ada_Drivers_Library\boards\NRF52_DK\obj\zfp_lib_Debug\libada_drivers_library.a(nrf-tasks.o)
 .rodata.nrf__tasks__clock_lfclkstop
                0x0000000000000000        0x4 C:\GNAT\Ada_Drivers_Library\boards\NRF52_DK\obj\zfp_lib_Debug\libada_drivers_library.a(nrf-tasks.o)
 .rodata.nrf__tasks__clock_cal
                0x0000000000000000        0x4 C:\GNAT\Ada_Drivers_Library\boards\NRF52_DK\obj\zfp_lib_Debug\libada_drivers_library.a(nrf-tasks.o)
 .rodata.nrf__tasks__clock_ctstart
                0x0000000000000000        0x4 C:\GNAT\Ada_Drivers_Library\boards\NRF52_DK\obj\zfp_lib_Debug\libada_drivers_library.a(nrf-tasks.o)
 .rodata.nrf__tasks__clock_ctstop
                0x0000000000000000        0x4 C:\GNAT\Ada_Drivers_Library\boards\NRF52_DK\obj\zfp_lib_Debug\libada_drivers_library.a(nrf-tasks.o)
 .rodata.nrf__tasks__gpiote_out_0
                0x0000000000000000        0x4 C:\GNAT\Ada_Drivers_Library\boards\NRF52_DK\obj\zfp_lib_Debug\libada_drivers_library.a(nrf-tasks.o)
 .rodata.nrf__tasks__gpiote_out_1
                0x0000000000000000        0x4 C:\GNAT\Ada_Drivers_Library\boards\NRF52_DK\obj\zfp_lib_Debug\libada_drivers_library.a(nrf-tasks.o)
 .rodata.nrf__tasks__gpiote_out_2
                0x0000000000000000        0x4 C:\GNAT\Ada_Drivers_Library\boards\NRF52_DK\obj\zfp_lib_Debug\libada_drivers_library.a(nrf-tasks.o)
 .rodata.nrf__tasks__gpiote_out_3
                0x0000000000000000        0x4 C:\GNAT\Ada_Drivers_Library\boards\NRF52_DK\obj\zfp_lib_Debug\libada_drivers_library.a(nrf-tasks.o)
 .rodata.nrf__tasks__ppi_chg_0_en
                0x0000000000000000        0x4 C:\GNAT\Ada_Drivers_Library\boards\NRF52_DK\obj\zfp_lib_Debug\libada_drivers_library.a(nrf-tasks.o)
 .rodata.nrf__tasks__ppi_chg_0_dis
                0x0000000000000000        0x4 C:\GNAT\Ada_Drivers_Library\boards\NRF52_DK\obj\zfp_lib_Debug\libada_drivers_library.a(nrf-tasks.o)
 .rodata.nrf__tasks__ppi_chg_1_en
                0x0000000000000000        0x4 C:\GNAT\Ada_Drivers_Library\boards\NRF52_DK\obj\zfp_lib_Debug\libada_drivers_library.a(nrf-tasks.o)
 .rodata.nrf__tasks__ppi_chg_1_dis
                0x0000000000000000        0x4 C:\GNAT\Ada_Drivers_Library\boards\NRF52_DK\obj\zfp_lib_Debug\libada_drivers_library.a(nrf-tasks.o)
 .rodata.nrf__tasks__ppi_chg_2_en
                0x0000000000000000        0x4 C:\GNAT\Ada_Drivers_Library\boards\NRF52_DK\obj\zfp_lib_Debug\libada_drivers_library.a(nrf-tasks.o)
 .rodata.nrf__tasks__ppi_chg_2_dis
                0x0000000000000000        0x4 C:\GNAT\Ada_Drivers_Library\boards\NRF52_DK\obj\zfp_lib_Debug\libada_drivers_library.a(nrf-tasks.o)
 .rodata.nrf__tasks__ppi_chg_3_en
                0x0000000000000000        0x4 C:\GNAT\Ada_Drivers_Library\boards\NRF52_DK\obj\zfp_lib_Debug\libada_drivers_library.a(nrf-tasks.o)
 .rodata.nrf__tasks__ppi_chg_3_dis
                0x0000000000000000        0x4 C:\GNAT\Ada_Drivers_Library\boards\NRF52_DK\obj\zfp_lib_Debug\libada_drivers_library.a(nrf-tasks.o)
 .rodata.nrf__tasks__radio_txen
                0x0000000000000000        0x4 C:\GNAT\Ada_Drivers_Library\boards\NRF52_DK\obj\zfp_lib_Debug\libada_drivers_library.a(nrf-tasks.o)
 .rodata.nrf__tasks__radio_rxen
                0x0000000000000000        0x4 C:\GNAT\Ada_Drivers_Library\boards\NRF52_DK\obj\zfp_lib_Debug\libada_drivers_library.a(nrf-tasks.o)
 .rodata.nrf__tasks__radio_start
                0x0000000000000000        0x4 C:\GNAT\Ada_Drivers_Library\boards\NRF52_DK\obj\zfp_lib_Debug\libada_drivers_library.a(nrf-tasks.o)
 .rodata.nrf__tasks__radio_stop
                0x0000000000000000        0x4 C:\GNAT\Ada_Drivers_Library\boards\NRF52_DK\obj\zfp_lib_Debug\libada_drivers_library.a(nrf-tasks.o)
 .rodata.nrf__tasks__radio_disable
                0x0000000000000000        0x4 C:\GNAT\Ada_Drivers_Library\boards\NRF52_DK\obj\zfp_lib_Debug\libada_drivers_library.a(nrf-tasks.o)
 .rodata.nrf__tasks__radio_rssistart
                0x0000000000000000        0x4 C:\GNAT\Ada_Drivers_Library\boards\NRF52_DK\obj\zfp_lib_Debug\libada_drivers_library.a(nrf-tasks.o)
 .rodata.nrf__tasks__radio_rssistop
                0x0000000000000000        0x4 C:\GNAT\Ada_Drivers_Library\boards\NRF52_DK\obj\zfp_lib_Debug\libada_drivers_library.a(nrf-tasks.o)
 .rodata.nrf__tasks__radio_bcstart
                0x0000000000000000        0x4 C:\GNAT\Ada_Drivers_Library\boards\NRF52_DK\obj\zfp_lib_Debug\libada_drivers_library.a(nrf-tasks.o)
 .rodata.nrf__tasks__radio_bcstop
                0x0000000000000000        0x4 C:\GNAT\Ada_Drivers_Library\boards\NRF52_DK\obj\zfp_lib_Debug\libada_drivers_library.a(nrf-tasks.o)
 .rodata.nrf__tasks__timer_0_start
                0x0000000000000000        0x4 C:\GNAT\Ada_Drivers_Library\boards\NRF52_DK\obj\zfp_lib_Debug\libada_drivers_library.a(nrf-tasks.o)
 .rodata.nrf__tasks__timer_0_stop
                0x0000000000000000        0x4 C:\GNAT\Ada_Drivers_Library\boards\NRF52_DK\obj\zfp_lib_Debug\libada_drivers_library.a(nrf-tasks.o)
 .rodata.nrf__tasks__timer_0_count
                0x0000000000000000        0x4 C:\GNAT\Ada_Drivers_Library\boards\NRF52_DK\obj\zfp_lib_Debug\libada_drivers_library.a(nrf-tasks.o)
 .rodata.nrf__tasks__timer_0_clear
                0x0000000000000000        0x4 C:\GNAT\Ada_Drivers_Library\boards\NRF52_DK\obj\zfp_lib_Debug\libada_drivers_library.a(nrf-tasks.o)
 .rodata.nrf__tasks__timer_0_capture_0
                0x0000000000000000        0x4 C:\GNAT\Ada_Drivers_Library\boards\NRF52_DK\obj\zfp_lib_Debug\libada_drivers_library.a(nrf-tasks.o)
 .rodata.nrf__tasks__timer_0_capture_1
                0x0000000000000000        0x4 C:\GNAT\Ada_Drivers_Library\boards\NRF52_DK\obj\zfp_lib_Debug\libada_drivers_library.a(nrf-tasks.o)
 .rodata.nrf__tasks__timer_0_capture_2
                0x0000000000000000        0x4 C:\GNAT\Ada_Drivers_Library\boards\NRF52_DK\obj\zfp_lib_Debug\libada_drivers_library.a(nrf-tasks.o)
 .rodata.nrf__tasks__timer_0_capture_3
                0x0000000000000000        0x4 C:\GNAT\Ada_Drivers_Library\boards\NRF52_DK\obj\zfp_lib_Debug\libada_drivers_library.a(nrf-tasks.o)
 .rodata.nrf__tasks__timer_1_start
                0x0000000000000000        0x4 C:\GNAT\Ada_Drivers_Library\boards\NRF52_DK\obj\zfp_lib_Debug\libada_drivers_library.a(nrf-tasks.o)
 .rodata.nrf__tasks__timer_1_stop
                0x0000000000000000        0x4 C:\GNAT\Ada_Drivers_Library\boards\NRF52_DK\obj\zfp_lib_Debug\libada_drivers_library.a(nrf-tasks.o)
 .rodata.nrf__tasks__timer_1_count
                0x0000000000000000        0x4 C:\GNAT\Ada_Drivers_Library\boards\NRF52_DK\obj\zfp_lib_Debug\libada_drivers_library.a(nrf-tasks.o)
 .rodata.nrf__tasks__timer_1_clear
                0x0000000000000000        0x4 C:\GNAT\Ada_Drivers_Library\boards\NRF52_DK\obj\zfp_lib_Debug\libada_drivers_library.a(nrf-tasks.o)
 .rodata.nrf__tasks__timer_1_capture_0
                0x0000000000000000        0x4 C:\GNAT\Ada_Drivers_Library\boards\NRF52_DK\obj\zfp_lib_Debug\libada_drivers_library.a(nrf-tasks.o)
 .rodata.nrf__tasks__timer_1_capture_1
                0x0000000000000000        0x4 C:\GNAT\Ada_Drivers_Library\boards\NRF52_DK\obj\zfp_lib_Debug\libada_drivers_library.a(nrf-tasks.o)
 .rodata.nrf__tasks__timer_1_capture_2
                0x0000000000000000        0x4 C:\GNAT\Ada_Drivers_Library\boards\NRF52_DK\obj\zfp_lib_Debug\libada_drivers_library.a(nrf-tasks.o)
 .rodata.nrf__tasks__timer_1_capture_3
                0x0000000000000000        0x4 C:\GNAT\Ada_Drivers_Library\boards\NRF52_DK\obj\zfp_lib_Debug\libada_drivers_library.a(nrf-tasks.o)
 .rodata.nrf__tasks__timer_2_start
                0x0000000000000000        0x4 C:\GNAT\Ada_Drivers_Library\boards\NRF52_DK\obj\zfp_lib_Debug\libada_drivers_library.a(nrf-tasks.o)
 .rodata.nrf__tasks__timer_2_stop
                0x0000000000000000        0x4 C:\GNAT\Ada_Drivers_Library\boards\NRF52_DK\obj\zfp_lib_Debug\libada_drivers_library.a(nrf-tasks.o)
 .rodata.nrf__tasks__timer_2_count
                0x0000000000000000        0x4 C:\GNAT\Ada_Drivers_Library\boards\NRF52_DK\obj\zfp_lib_Debug\libada_drivers_library.a(nrf-tasks.o)
 .rodata.nrf__tasks__timer_2_clear
                0x0000000000000000        0x4 C:\GNAT\Ada_Drivers_Library\boards\NRF52_DK\obj\zfp_lib_Debug\libada_drivers_library.a(nrf-tasks.o)
 .rodata.nrf__tasks__timer_2_capture_0
                0x0000000000000000        0x4 C:\GNAT\Ada_Drivers_Library\boards\NRF52_DK\obj\zfp_lib_Debug\libada_drivers_library.a(nrf-tasks.o)
 .rodata.nrf__tasks__timer_2_capture_1
                0x0000000000000000        0x4 C:\GNAT\Ada_Drivers_Library\boards\NRF52_DK\obj\zfp_lib_Debug\libada_drivers_library.a(nrf-tasks.o)
 .rodata.nrf__tasks__timer_2_capture_2
                0x0000000000000000        0x4 C:\GNAT\Ada_Drivers_Library\boards\NRF52_DK\obj\zfp_lib_Debug\libada_drivers_library.a(nrf-tasks.o)
 .rodata.nrf__tasks__timer_2_capture_3
                0x0000000000000000        0x4 C:\GNAT\Ada_Drivers_Library\boards\NRF52_DK\obj\zfp_lib_Debug\libada_drivers_library.a(nrf-tasks.o)
 .rodata.nrf__tasks__rtc_0_start
                0x0000000000000000        0x4 C:\GNAT\Ada_Drivers_Library\boards\NRF52_DK\obj\zfp_lib_Debug\libada_drivers_library.a(nrf-tasks.o)
 .rodata.nrf__tasks__rtc_0_stop
                0x0000000000000000        0x4 C:\GNAT\Ada_Drivers_Library\boards\NRF52_DK\obj\zfp_lib_Debug\libada_drivers_library.a(nrf-tasks.o)
 .rodata.nrf__tasks__rtc_0_clear
                0x0000000000000000        0x4 C:\GNAT\Ada_Drivers_Library\boards\NRF52_DK\obj\zfp_lib_Debug\libada_drivers_library.a(nrf-tasks.o)
 .rodata.nrf__tasks__rtc_0_trigovrflw
                0x0000000000000000        0x4 C:\GNAT\Ada_Drivers_Library\boards\NRF52_DK\obj\zfp_lib_Debug\libada_drivers_library.a(nrf-tasks.o)
 .rodata.nrf__tasks__rtc_1_start
                0x0000000000000000        0x4 C:\GNAT\Ada_Drivers_Library\boards\NRF52_DK\obj\zfp_lib_Debug\libada_drivers_library.a(nrf-tasks.o)
 .rodata.nrf__tasks__rtc_1_stop
                0x0000000000000000        0x4 C:\GNAT\Ada_Drivers_Library\boards\NRF52_DK\obj\zfp_lib_Debug\libada_drivers_library.a(nrf-tasks.o)
 .rodata.nrf__tasks__rtc_1_clear
                0x0000000000000000        0x4 C:\GNAT\Ada_Drivers_Library\boards\NRF52_DK\obj\zfp_lib_Debug\libada_drivers_library.a(nrf-tasks.o)
 .rodata.nrf__tasks__rtc_1_trigovrflw
                0x0000000000000000        0x4 C:\GNAT\Ada_Drivers_Library\boards\NRF52_DK\obj\zfp_lib_Debug\libada_drivers_library.a(nrf-tasks.o)
 .rodata.nrf__tasks__watchdog_start
                0x0000000000000000        0x4 C:\GNAT\Ada_Drivers_Library\boards\NRF52_DK\obj\zfp_lib_Debug\libada_drivers_library.a(nrf-tasks.o)
 .rodata.nrf__tasks__rng_start
                0x0000000000000000        0x4 C:\GNAT\Ada_Drivers_Library\boards\NRF52_DK\obj\zfp_lib_Debug\libada_drivers_library.a(nrf-tasks.o)
 .rodata.nrf__tasks__rng_stop
                0x0000000000000000        0x4 C:\GNAT\Ada_Drivers_Library\boards\NRF52_DK\obj\zfp_lib_Debug\libada_drivers_library.a(nrf-tasks.o)
 .rodata.nrf__tasks__temperature_start
                0x0000000000000000        0x4 C:\GNAT\Ada_Drivers_Library\boards\NRF52_DK\obj\zfp_lib_Debug\libada_drivers_library.a(nrf-tasks.o)
 .rodata.nrf__tasks__temperature_stop
                0x0000000000000000        0x4 C:\GNAT\Ada_Drivers_Library\boards\NRF52_DK\obj\zfp_lib_Debug\libada_drivers_library.a(nrf-tasks.o)
 .rodata.nrf__tasks__ecb_start
                0x0000000000000000        0x4 C:\GNAT\Ada_Drivers_Library\boards\NRF52_DK\obj\zfp_lib_Debug\libada_drivers_library.a(nrf-tasks.o)
 .rodata.nrf__tasks__ecb_stop
                0x0000000000000000        0x4 C:\GNAT\Ada_Drivers_Library\boards\NRF52_DK\obj\zfp_lib_Debug\libada_drivers_library.a(nrf-tasks.o)
 .rodata.nrf__tasks__ccm_ksgen
                0x0000000000000000        0x4 C:\GNAT\Ada_Drivers_Library\boards\NRF52_DK\obj\zfp_lib_Debug\libada_drivers_library.a(nrf-tasks.o)
 .rodata.nrf__tasks__ccm_crypt
                0x0000000000000000        0x4 C:\GNAT\Ada_Drivers_Library\boards\NRF52_DK\obj\zfp_lib_Debug\libada_drivers_library.a(nrf-tasks.o)
 .rodata.nrf__tasks__ccm_stop
                0x0000000000000000        0x4 C:\GNAT\Ada_Drivers_Library\boards\NRF52_DK\obj\zfp_lib_Debug\libada_drivers_library.a(nrf-tasks.o)
 .rodata.nrf__tasks__aar_start
                0x0000000000000000        0x4 C:\GNAT\Ada_Drivers_Library\boards\NRF52_DK\obj\zfp_lib_Debug\libada_drivers_library.a(nrf-tasks.o)
 .rodata.nrf__tasks__aar_stop
                0x0000000000000000        0x4 C:\GNAT\Ada_Drivers_Library\boards\NRF52_DK\obj\zfp_lib_Debug\libada_drivers_library.a(nrf-tasks.o)
 .rodata.nrf__tasks__twi_0_startrx
                0x0000000000000000        0x4 C:\GNAT\Ada_Drivers_Library\boards\NRF52_DK\obj\zfp_lib_Debug\libada_drivers_library.a(nrf-tasks.o)
 .rodata.nrf__tasks__twi_0_starttx
                0x0000000000000000        0x4 C:\GNAT\Ada_Drivers_Library\boards\NRF52_DK\obj\zfp_lib_Debug\libada_drivers_library.a(nrf-tasks.o)
 .rodata.nrf__tasks__twi_0_stop
                0x0000000000000000        0x4 C:\GNAT\Ada_Drivers_Library\boards\NRF52_DK\obj\zfp_lib_Debug\libada_drivers_library.a(nrf-tasks.o)
 .rodata.nrf__tasks__twi_0_suspend
                0x0000000000000000        0x4 C:\GNAT\Ada_Drivers_Library\boards\NRF52_DK\obj\zfp_lib_Debug\libada_drivers_library.a(nrf-tasks.o)
 .rodata.nrf__tasks__twi_0_resume
                0x0000000000000000        0x4 C:\GNAT\Ada_Drivers_Library\boards\NRF52_DK\obj\zfp_lib_Debug\libada_drivers_library.a(nrf-tasks.o)
 .rodata.nrf__tasks__twi_1_startrx
                0x0000000000000000        0x4 C:\GNAT\Ada_Drivers_Library\boards\NRF52_DK\obj\zfp_lib_Debug\libada_drivers_library.a(nrf-tasks.o)
 .rodata.nrf__tasks__twi_1_starttx
                0x0000000000000000        0x4 C:\GNAT\Ada_Drivers_Library\boards\NRF52_DK\obj\zfp_lib_Debug\libada_drivers_library.a(nrf-tasks.o)
 .rodata.nrf__tasks__twi_1_stop
                0x0000000000000000        0x4 C:\GNAT\Ada_Drivers_Library\boards\NRF52_DK\obj\zfp_lib_Debug\libada_drivers_library.a(nrf-tasks.o)
 .rodata.nrf__tasks__twi_1_suspend
                0x0000000000000000        0x4 C:\GNAT\Ada_Drivers_Library\boards\NRF52_DK\obj\zfp_lib_Debug\libada_drivers_library.a(nrf-tasks.o)
 .rodata.nrf__tasks__twi_1_resume
                0x0000000000000000        0x4 C:\GNAT\Ada_Drivers_Library\boards\NRF52_DK\obj\zfp_lib_Debug\libada_drivers_library.a(nrf-tasks.o)
 .rodata.nrf__tasks__uart_startrx
                0x0000000000000000        0x4 C:\GNAT\Ada_Drivers_Library\boards\NRF52_DK\obj\zfp_lib_Debug\libada_drivers_library.a(nrf-tasks.o)
 .rodata.nrf__tasks__uart_stoprx
                0x0000000000000000        0x4 C:\GNAT\Ada_Drivers_Library\boards\NRF52_DK\obj\zfp_lib_Debug\libada_drivers_library.a(nrf-tasks.o)
 .rodata.nrf__tasks__uart_starttx
                0x0000000000000000        0x4 C:\GNAT\Ada_Drivers_Library\boards\NRF52_DK\obj\zfp_lib_Debug\libada_drivers_library.a(nrf-tasks.o)
 .rodata.nrf__tasks__uart_stoptx
                0x0000000000000000        0x4 C:\GNAT\Ada_Drivers_Library\boards\NRF52_DK\obj\zfp_lib_Debug\libada_drivers_library.a(nrf-tasks.o)
 .rodata.nrf__tasks__qdec_start
                0x0000000000000000        0x4 C:\GNAT\Ada_Drivers_Library\boards\NRF52_DK\obj\zfp_lib_Debug\libada_drivers_library.a(nrf-tasks.o)
 .rodata.nrf__tasks__qdec_stop
                0x0000000000000000        0x4 C:\GNAT\Ada_Drivers_Library\boards\NRF52_DK\obj\zfp_lib_Debug\libada_drivers_library.a(nrf-tasks.o)
 .rodata.nrf__tasks__qdec_readclracc
                0x0000000000000000        0x4 C:\GNAT\Ada_Drivers_Library\boards\NRF52_DK\obj\zfp_lib_Debug\libada_drivers_library.a(nrf-tasks.o)
 .rodata.nrf__tasks__adc_start
                0x0000000000000000        0x4 C:\GNAT\Ada_Drivers_Library\boards\NRF52_DK\obj\zfp_lib_Debug\libada_drivers_library.a(nrf-tasks.o)
 .rodata.nrf__tasks__adc_stop
                0x0000000000000000        0x4 C:\GNAT\Ada_Drivers_Library\boards\NRF52_DK\obj\zfp_lib_Debug\libada_drivers_library.a(nrf-tasks.o)
 .text          0x0000000000000000        0x0 C:\GNAT\Ada_Drivers_Library\boards\NRF52_DK\obj\zfp_lib_Debug\libada_drivers_library.a(nrf-timers.o)
 .data          0x0000000000000000        0x0 C:\GNAT\Ada_Drivers_Library\boards\NRF52_DK\obj\zfp_lib_Debug\libada_drivers_library.a(nrf-timers.o)
 .bss           0x0000000000000000        0x0 C:\GNAT\Ada_Drivers_Library\boards\NRF52_DK\obj\zfp_lib_Debug\libada_drivers_library.a(nrf-timers.o)
 .rodata.nrf__timers__timerP
                0x0000000000000000        0x4 C:\GNAT\Ada_Drivers_Library\boards\NRF52_DK\obj\zfp_lib_Debug\libada_drivers_library.a(nrf-timers.o)
 .rodata.nrf__timers__timerY
                0x0000000000000000        0x4 C:\GNAT\Ada_Drivers_Library\boards\NRF52_DK\obj\zfp_lib_Debug\libada_drivers_library.a(nrf-timers.o)
 .rodata.nrf__timers__timerR21s
                0x0000000000000000        0x4 C:\GNAT\Ada_Drivers_Library\boards\NRF52_DK\obj\zfp_lib_Debug\libada_drivers_library.a(nrf-timers.o)
 .text          0x0000000000000000        0x0 C:\GNAT\Ada_Drivers_Library\boards\NRF52_DK\obj\zfp_lib_Debug\libada_drivers_library.a(nrf-twi.o)
 .data          0x0000000000000000        0x0 C:\GNAT\Ada_Drivers_Library\boards\NRF52_DK\obj\zfp_lib_Debug\libada_drivers_library.a(nrf-twi.o)
 .bss           0x0000000000000000        0x0 C:\GNAT\Ada_Drivers_Library\boards\NRF52_DK\obj\zfp_lib_Debug\libada_drivers_library.a(nrf-twi.o)
 .rodata.nrf__twi__twi_masterP
                0x0000000000000000        0x4 C:\GNAT\Ada_Drivers_Library\boards\NRF52_DK\obj\zfp_lib_Debug\libada_drivers_library.a(nrf-twi.o)
 .rodata.nrf__twi__twi_masterY
                0x0000000000000000        0x4 C:\GNAT\Ada_Drivers_Library\boards\NRF52_DK\obj\zfp_lib_Debug\libada_drivers_library.a(nrf-twi.o)
 .rodata.nrf__twi__twi_masterR24s
                0x0000000000000000        0x4 C:\GNAT\Ada_Drivers_Library\boards\NRF52_DK\obj\zfp_lib_Debug\libada_drivers_library.a(nrf-twi.o)
 .data.T10b.6068
                0x0000000000000000        0x4 C:\GNAT\Ada_Drivers_Library\boards\NRF52_DK\obj\zfp_lib_Debug\libada_drivers_library.a(nrf-twi.o)
 .data.T18b.6080
                0x0000000000000000        0x4 C:\GNAT\Ada_Drivers_Library\boards\NRF52_DK\obj\zfp_lib_Debug\libada_drivers_library.a(nrf-twi.o)
 .text          0x0000000000000000        0x0 C:\GNAT\Ada_Drivers_Library\boards\NRF52_DK\obj\zfp_lib_Debug\libada_drivers_library.a(nrf-uart.o)
 .data          0x0000000000000000        0x0 C:\GNAT\Ada_Drivers_Library\boards\NRF52_DK\obj\zfp_lib_Debug\libada_drivers_library.a(nrf-uart.o)
 .bss           0x0000000000000000        0x0 C:\GNAT\Ada_Drivers_Library\boards\NRF52_DK\obj\zfp_lib_Debug\libada_drivers_library.a(nrf-uart.o)
 .text.nrf__uart__baud_rateRP
                0x0000000000000000      0x184 C:\GNAT\Ada_Drivers_Library\boards\NRF52_DK\obj\zfp_lib_Debug\libada_drivers_library.a(nrf-uart.o)
 .rodata.nrf__uart__uart_deviceP
                0x0000000000000000        0x4 C:\GNAT\Ada_Drivers_Library\boards\NRF52_DK\obj\zfp_lib_Debug\libada_drivers_library.a(nrf-uart.o)
 .rodata.nrf__uart__uart_deviceY
                0x0000000000000000        0x4 C:\GNAT\Ada_Drivers_Library\boards\NRF52_DK\obj\zfp_lib_Debug\libada_drivers_library.a(nrf-uart.o)
 .rodata.nrf__uart__baud_rateA
                0x0000000000000000       0x40 C:\GNAT\Ada_Drivers_Library\boards\NRF52_DK\obj\zfp_lib_Debug\libada_drivers_library.a(nrf-uart.o)
 .rodata.nrf__uart__uart_deviceR46s
                0x0000000000000000        0x4 C:\GNAT\Ada_Drivers_Library\boards\NRF52_DK\obj\zfp_lib_Debug\libada_drivers_library.a(nrf-uart.o)
 .text          0x0000000000000000        0x0 C:\GNAT\Ada_Drivers_Library\boards\NRF52_DK\obj\zfp_lib_Debug\libada_drivers_library.a(nrf52_dk-buttons.o)
 .data          0x0000000000000000        0x0 C:\GNAT\Ada_Drivers_Library\boards\NRF52_DK\obj\zfp_lib_Debug\libada_drivers_library.a(nrf52_dk-buttons.o)
 .bss           0x0000000000000000        0x0 C:\GNAT\Ada_Drivers_Library\boards\NRF52_DK\obj\zfp_lib_Debug\libada_drivers_library.a(nrf52_dk-buttons.o)
 .text.nrf52_dk__buttons__Tbutton_state_arrayBIP
                0x0000000000000000       0x14 C:\GNAT\Ada_Drivers_Library\boards\NRF52_DK\obj\zfp_lib_Debug\libada_drivers_library.a(nrf52_dk-buttons.o)
 .text.nrf52_dk__buttons__state
                0x0000000000000000       0x24 C:\GNAT\Ada_Drivers_Library\boards\NRF52_DK\obj\zfp_lib_Debug\libada_drivers_library.a(nrf52_dk-buttons.o)
 .text.nrf52_dk__buttons__subscribe
                0x0000000000000000       0x4c C:\GNAT\Ada_Drivers_Library\boards\NRF52_DK\obj\zfp_lib_Debug\libada_drivers_library.a(nrf52_dk-buttons.o)
 .text.nrf52_dk__buttons__unsubscribe
                0x0000000000000000       0x50 C:\GNAT\Ada_Drivers_Library\boards\NRF52_DK\obj\zfp_lib_Debug\libada_drivers_library.a(nrf52_dk-buttons.o)
 .text          0x0000000000000000        0x0 C:\GNAT\Ada_Drivers_Library\boards\NRF52_DK\obj\zfp_lib_Debug\libada_drivers_library.a(nrf52_dk-leds.o)
 .data          0x0000000000000000        0x0 C:\GNAT\Ada_Drivers_Library\boards\NRF52_DK\obj\zfp_lib_Debug\libada_drivers_library.a(nrf52_dk-leds.o)
 .bss           0x0000000000000000        0x0 C:\GNAT\Ada_Drivers_Library\boards\NRF52_DK\obj\zfp_lib_Debug\libada_drivers_library.a(nrf52_dk-leds.o)
 .rodata.nrf52_dk__leds__led1
                0x0000000000000000        0x4 C:\GNAT\Ada_Drivers_Library\boards\NRF52_DK\obj\zfp_lib_Debug\libada_drivers_library.a(nrf52_dk-leds.o)
 .rodata.nrf52_dk__leds__led2
                0x0000000000000000        0x4 C:\GNAT\Ada_Drivers_Library\boards\NRF52_DK\obj\zfp_lib_Debug\libada_drivers_library.a(nrf52_dk-leds.o)
 .rodata.nrf52_dk__leds__led3
                0x0000000000000000        0x4 C:\GNAT\Ada_Drivers_Library\boards\NRF52_DK\obj\zfp_lib_Debug\libada_drivers_library.a(nrf52_dk-leds.o)
 .rodata.nrf52_dk__leds__led4
                0x0000000000000000        0x4 C:\GNAT\Ada_Drivers_Library\boards\NRF52_DK\obj\zfp_lib_Debug\libada_drivers_library.a(nrf52_dk-leds.o)
 .rodata.nrf52_dk__leds__led5
                0x0000000000000000        0x4 C:\GNAT\Ada_Drivers_Library\boards\NRF52_DK\obj\zfp_lib_Debug\libada_drivers_library.a(nrf52_dk-leds.o)
 .rodata.nrf52_dk__leds__led6
                0x0000000000000000        0x4 C:\GNAT\Ada_Drivers_Library\boards\NRF52_DK\obj\zfp_lib_Debug\libada_drivers_library.a(nrf52_dk-leds.o)
 .rodata.nrf52_dk__leds__led7
                0x0000000000000000        0x4 C:\GNAT\Ada_Drivers_Library\boards\NRF52_DK\obj\zfp_lib_Debug\libada_drivers_library.a(nrf52_dk-leds.o)
 .rodata.nrf52_dk__leds__led8
                0x0000000000000000        0x4 C:\GNAT\Ada_Drivers_Library\boards\NRF52_DK\obj\zfp_lib_Debug\libada_drivers_library.a(nrf52_dk-leds.o)
 .rodata.nrf52_dk__leds__led9
                0x0000000000000000        0x4 C:\GNAT\Ada_Drivers_Library\boards\NRF52_DK\obj\zfp_lib_Debug\libada_drivers_library.a(nrf52_dk-leds.o)
 .rodata.nrf52_dk__leds__led10
                0x0000000000000000        0x4 C:\GNAT\Ada_Drivers_Library\boards\NRF52_DK\obj\zfp_lib_Debug\libada_drivers_library.a(nrf52_dk-leds.o)
 .rodata.nrf52_dk__leds__led11
                0x0000000000000000        0x4 C:\GNAT\Ada_Drivers_Library\boards\NRF52_DK\obj\zfp_lib_Debug\libada_drivers_library.a(nrf52_dk-leds.o)
 .rodata.nrf52_dk__leds__led12
                0x0000000000000000        0x4 C:\GNAT\Ada_Drivers_Library\boards\NRF52_DK\obj\zfp_lib_Debug\libada_drivers_library.a(nrf52_dk-leds.o)
 .rodata.nrf52_dk__leds__led13
                0x0000000000000000        0x4 C:\GNAT\Ada_Drivers_Library\boards\NRF52_DK\obj\zfp_lib_Debug\libada_drivers_library.a(nrf52_dk-leds.o)
 .rodata.nrf52_dk__leds__led14
                0x0000000000000000        0x4 C:\GNAT\Ada_Drivers_Library\boards\NRF52_DK\obj\zfp_lib_Debug\libada_drivers_library.a(nrf52_dk-leds.o)
 .rodata.nrf52_dk__leds__led15
                0x0000000000000000        0x4 C:\GNAT\Ada_Drivers_Library\boards\NRF52_DK\obj\zfp_lib_Debug\libada_drivers_library.a(nrf52_dk-leds.o)
 .rodata.nrf52_dk__leds__led16
                0x0000000000000000        0x4 C:\GNAT\Ada_Drivers_Library\boards\NRF52_DK\obj\zfp_lib_Debug\libada_drivers_library.a(nrf52_dk-leds.o)
 .rodata.nrf52_dk__leds__led17
                0x0000000000000000        0x4 C:\GNAT\Ada_Drivers_Library\boards\NRF52_DK\obj\zfp_lib_Debug\libada_drivers_library.a(nrf52_dk-leds.o)
 .rodata.nrf52_dk__leds__led18
                0x0000000000000000        0x4 C:\GNAT\Ada_Drivers_Library\boards\NRF52_DK\obj\zfp_lib_Debug\libada_drivers_library.a(nrf52_dk-leds.o)
 .rodata.nrf52_dk__leds__led19
                0x0000000000000000        0x4 C:\GNAT\Ada_Drivers_Library\boards\NRF52_DK\obj\zfp_lib_Debug\libada_drivers_library.a(nrf52_dk-leds.o)
 .rodata.nrf52_dk__leds__led20
                0x0000000000000000        0x4 C:\GNAT\Ada_Drivers_Library\boards\NRF52_DK\obj\zfp_lib_Debug\libada_drivers_library.a(nrf52_dk-leds.o)
 .rodata.nrf52_dk__leds__led21
                0x0000000000000000        0x4 C:\GNAT\Ada_Drivers_Library\boards\NRF52_DK\obj\zfp_lib_Debug\libada_drivers_library.a(nrf52_dk-leds.o)
 .rodata.nrf52_dk__leds__led22
                0x0000000000000000        0x4 C:\GNAT\Ada_Drivers_Library\boards\NRF52_DK\obj\zfp_lib_Debug\libada_drivers_library.a(nrf52_dk-leds.o)
 .rodata.nrf52_dk__leds__led23
                0x0000000000000000        0x4 C:\GNAT\Ada_Drivers_Library\boards\NRF52_DK\obj\zfp_lib_Debug\libada_drivers_library.a(nrf52_dk-leds.o)
 .rodata.nrf52_dk__leds__led24
                0x0000000000000000        0x4 C:\GNAT\Ada_Drivers_Library\boards\NRF52_DK\obj\zfp_lib_Debug\libada_drivers_library.a(nrf52_dk-leds.o)
 .rodata.nrf52_dk__leds__led25
                0x0000000000000000        0x4 C:\GNAT\Ada_Drivers_Library\boards\NRF52_DK\obj\zfp_lib_Debug\libada_drivers_library.a(nrf52_dk-leds.o)
 .rodata.nrf52_dk__leds__led26
                0x0000000000000000        0x4 C:\GNAT\Ada_Drivers_Library\boards\NRF52_DK\obj\zfp_lib_Debug\libada_drivers_library.a(nrf52_dk-leds.o)
 .rodata.nrf52_dk__leds__led27
                0x0000000000000000        0x4 C:\GNAT\Ada_Drivers_Library\boards\NRF52_DK\obj\zfp_lib_Debug\libada_drivers_library.a(nrf52_dk-leds.o)
 .rodata.nrf52_dk__leds__led28
                0x0000000000000000        0x4 C:\GNAT\Ada_Drivers_Library\boards\NRF52_DK\obj\zfp_lib_Debug\libada_drivers_library.a(nrf52_dk-leds.o)
 .rodata.nrf52_dk__leds__led29
                0x0000000000000000        0x4 C:\GNAT\Ada_Drivers_Library\boards\NRF52_DK\obj\zfp_lib_Debug\libada_drivers_library.a(nrf52_dk-leds.o)
 .rodata.nrf52_dk__leds__led30
                0x0000000000000000        0x4 C:\GNAT\Ada_Drivers_Library\boards\NRF52_DK\obj\zfp_lib_Debug\libada_drivers_library.a(nrf52_dk-leds.o)
 .rodata.nrf52_dk__leds__led31
                0x0000000000000000        0x4 C:\GNAT\Ada_Drivers_Library\boards\NRF52_DK\obj\zfp_lib_Debug\libada_drivers_library.a(nrf52_dk-leds.o)
 .text          0x0000000000000000        0x0 C:\GNAT\Ada_Drivers_Library\boards\NRF52_DK\obj\zfp_lib_Debug\libada_drivers_library.a(nrf52_dk-time.o)
 .data          0x0000000000000000        0x0 C:\GNAT\Ada_Drivers_Library\boards\NRF52_DK\obj\zfp_lib_Debug\libada_drivers_library.a(nrf52_dk-time.o)
 .bss           0x0000000000000000        0x0 C:\GNAT\Ada_Drivers_Library\boards\NRF52_DK\obj\zfp_lib_Debug\libada_drivers_library.a(nrf52_dk-time.o)
 .text.nrf52_dk__time__tick_period
                0x0000000000000000       0x1c C:\GNAT\Ada_Drivers_Library\boards\NRF52_DK\obj\zfp_lib_Debug\libada_drivers_library.a(nrf52_dk-time.o)
 .text.nrf52_dk__time__tick_unsubscribe___postconditions.6372
                0x0000000000000000       0x50 C:\GNAT\Ada_Drivers_Library\boards\NRF52_DK\obj\zfp_lib_Debug\libada_drivers_library.a(nrf52_dk-time.o)
 .text.nrf52_dk__time__tick_unsubscribe
                0x0000000000000000       0x94 C:\GNAT\Ada_Drivers_Library\boards\NRF52_DK\obj\zfp_lib_Debug\libada_drivers_library.a(nrf52_dk-time.o)
 .text.nrf52_dk__time__hal_delay
                0x0000000000000000       0x18 C:\GNAT\Ada_Drivers_Library\boards\NRF52_DK\obj\zfp_lib_Debug\libada_drivers_library.a(nrf52_dk-time.o)
 .rodata.nrf52_dk__time__mb_delaysP
                0x0000000000000000        0x4 C:\GNAT\Ada_Drivers_Library\boards\NRF52_DK\obj\zfp_lib_Debug\libada_drivers_library.a(nrf52_dk-time.o)
 .rodata.nrf52_dk__time__mb_delaysY
                0x0000000000000000        0x4 C:\GNAT\Ada_Drivers_Library\boards\NRF52_DK\obj\zfp_lib_Debug\libada_drivers_library.a(nrf52_dk-time.o)
 .rodata.nrf52_dk__time__mb_delaysR19s
                0x0000000000000000        0x4 C:\GNAT\Ada_Drivers_Library\boards\NRF52_DK\obj\zfp_lib_Debug\libada_drivers_library.a(nrf52_dk-time.o)
 .rodata.nrf52_dk__time__period_ms
                0x0000000000000000        0x8 C:\GNAT\Ada_Drivers_Library\boards\NRF52_DK\obj\zfp_lib_Debug\libada_drivers_library.a(nrf52_dk-time.o)
 .text          0x0000000000000000        0x0 C:\GNAT\Ada_Drivers_Library\boards\NRF52_DK\obj\zfp_lib_Debug\libada_drivers_library.a(nrf_svd-gpio.o)
 .data          0x0000000000000000        0x0 C:\GNAT\Ada_Drivers_Library\boards\NRF52_DK\obj\zfp_lib_Debug\libada_drivers_library.a(nrf_svd-gpio.o)
 .bss           0x0000000000000000        0x0 C:\GNAT\Ada_Drivers_Library\boards\NRF52_DK\obj\zfp_lib_Debug\libada_drivers_library.a(nrf_svd-gpio.o)
 .text.nrf_svd__gpio__pin_cnf_sense_fieldRP
                0x0000000000000000       0x40 C:\GNAT\Ada_Drivers_Library\boards\NRF52_DK\obj\zfp_lib_Debug\libada_drivers_library.a(nrf_svd-gpio.o)
 .text.nrf_svd__gpio__Tout_pin_field_arrayBIP
                0x0000000000000000       0x14 C:\GNAT\Ada_Drivers_Library\boards\NRF52_DK\obj\zfp_lib_Debug\libada_drivers_library.a(nrf_svd-gpio.o)
 .text.nrf_svd__gpio__out_registerEQ__E37s.6164
                0x0000000000000000       0x48 C:\GNAT\Ada_Drivers_Library\boards\NRF52_DK\obj\zfp_lib_Debug\libada_drivers_library.a(nrf_svd-gpio.o)
 .text.nrf_svd__gpio__out_registerEQ
                0x0000000000000000       0x78 C:\GNAT\Ada_Drivers_Library\boards\NRF52_DK\obj\zfp_lib_Debug\libada_drivers_library.a(nrf_svd-gpio.o)
 .text.nrf_svd__gpio__out_registerIP
                0x0000000000000000       0x18 C:\GNAT\Ada_Drivers_Library\boards\NRF52_DK\obj\zfp_lib_Debug\libada_drivers_library.a(nrf_svd-gpio.o)
 .text.nrf_svd__gpio__Toutset_pin_field_arrayBIP
                0x0000000000000000       0x14 C:\GNAT\Ada_Drivers_Library\boards\NRF52_DK\obj\zfp_lib_Debug\libada_drivers_library.a(nrf_svd-gpio.o)
 .text.nrf_svd__gpio__outset_registerEQ__E54s.6173
                0x0000000000000000       0x48 C:\GNAT\Ada_Drivers_Library\boards\NRF52_DK\obj\zfp_lib_Debug\libada_drivers_library.a(nrf_svd-gpio.o)
 .text.nrf_svd__gpio__outset_registerEQ
                0x0000000000000000       0x78 C:\GNAT\Ada_Drivers_Library\boards\NRF52_DK\obj\zfp_lib_Debug\libada_drivers_library.a(nrf_svd-gpio.o)
 .text.nrf_svd__gpio__outset_registerIP
                0x0000000000000000       0x18 C:\GNAT\Ada_Drivers_Library\boards\NRF52_DK\obj\zfp_lib_Debug\libada_drivers_library.a(nrf_svd-gpio.o)
 .text.nrf_svd__gpio__Toutclr_pin_field_arrayBIP
                0x0000000000000000       0x14 C:\GNAT\Ada_Drivers_Library\boards\NRF52_DK\obj\zfp_lib_Debug\libada_drivers_library.a(nrf_svd-gpio.o)
 .text.nrf_svd__gpio__outclr_registerEQ__E71s.6182
                0x0000000000000000       0x48 C:\GNAT\Ada_Drivers_Library\boards\NRF52_DK\obj\zfp_lib_Debug\libada_drivers_library.a(nrf_svd-gpio.o)
 .text.nrf_svd__gpio__outclr_registerEQ
                0x0000000000000000       0x78 C:\GNAT\Ada_Drivers_Library\boards\NRF52_DK\obj\zfp_lib_Debug\libada_drivers_library.a(nrf_svd-gpio.o)
 .text.nrf_svd__gpio__outclr_registerIP
                0x0000000000000000       0x18 C:\GNAT\Ada_Drivers_Library\boards\NRF52_DK\obj\zfp_lib_Debug\libada_drivers_library.a(nrf_svd-gpio.o)
 .text.nrf_svd__gpio__Tin_pin_field_arrayBIP
                0x0000000000000000       0x14 C:\GNAT\Ada_Drivers_Library\boards\NRF52_DK\obj\zfp_lib_Debug\libada_drivers_library.a(nrf_svd-gpio.o)
 .text.nrf_svd__gpio__in_registerEQ__E88s.6191
                0x0000000000000000       0x48 C:\GNAT\Ada_Drivers_Library\boards\NRF52_DK\obj\zfp_lib_Debug\libada_drivers_library.a(nrf_svd-gpio.o)
 .text.nrf_svd__gpio__in_registerEQ
                0x0000000000000000       0x78 C:\GNAT\Ada_Drivers_Library\boards\NRF52_DK\obj\zfp_lib_Debug\libada_drivers_library.a(nrf_svd-gpio.o)
 .text.nrf_svd__gpio__in_registerIP
                0x0000000000000000       0x18 C:\GNAT\Ada_Drivers_Library\boards\NRF52_DK\obj\zfp_lib_Debug\libada_drivers_library.a(nrf_svd-gpio.o)
 .text.nrf_svd__gpio__Tdir_pin_field_arrayBIP
                0x0000000000000000       0x14 C:\GNAT\Ada_Drivers_Library\boards\NRF52_DK\obj\zfp_lib_Debug\libada_drivers_library.a(nrf_svd-gpio.o)
 .text.nrf_svd__gpio__dir_registerEQ__E105s.6200
                0x0000000000000000       0x48 C:\GNAT\Ada_Drivers_Library\boards\NRF52_DK\obj\zfp_lib_Debug\libada_drivers_library.a(nrf_svd-gpio.o)
 .text.nrf_svd__gpio__dir_registerEQ
                0x0000000000000000       0x78 C:\GNAT\Ada_Drivers_Library\boards\NRF52_DK\obj\zfp_lib_Debug\libada_drivers_library.a(nrf_svd-gpio.o)
 .text.nrf_svd__gpio__dir_registerIP
                0x0000000000000000       0x18 C:\GNAT\Ada_Drivers_Library\boards\NRF52_DK\obj\zfp_lib_Debug\libada_drivers_library.a(nrf_svd-gpio.o)
 .text.nrf_svd__gpio__Tdirset_pin_field_arrayBIP
                0x0000000000000000       0x14 C:\GNAT\Ada_Drivers_Library\boards\NRF52_DK\obj\zfp_lib_Debug\libada_drivers_library.a(nrf_svd-gpio.o)
 .text.nrf_svd__gpio__dirset_registerEQ__E122s.6209
                0x0000000000000000       0x48 C:\GNAT\Ada_Drivers_Library\boards\NRF52_DK\obj\zfp_lib_Debug\libada_drivers_library.a(nrf_svd-gpio.o)
 .text.nrf_svd__gpio__dirset_registerEQ
                0x0000000000000000       0x78 C:\GNAT\Ada_Drivers_Library\boards\NRF52_DK\obj\zfp_lib_Debug\libada_drivers_library.a(nrf_svd-gpio.o)
 .text.nrf_svd__gpio__dirset_registerIP
                0x0000000000000000       0x18 C:\GNAT\Ada_Drivers_Library\boards\NRF52_DK\obj\zfp_lib_Debug\libada_drivers_library.a(nrf_svd-gpio.o)
 .text.nrf_svd__gpio__Tdirclr_pin_field_arrayBIP
                0x0000000000000000       0x14 C:\GNAT\Ada_Drivers_Library\boards\NRF52_DK\obj\zfp_lib_Debug\libada_drivers_library.a(nrf_svd-gpio.o)
 .text.nrf_svd__gpio__dirclr_registerEQ__E139s.6218
                0x0000000000000000       0x48 C:\GNAT\Ada_Drivers_Library\boards\NRF52_DK\obj\zfp_lib_Debug\libada_drivers_library.a(nrf_svd-gpio.o)
 .text.nrf_svd__gpio__dirclr_registerEQ
                0x0000000000000000       0x78 C:\GNAT\Ada_Drivers_Library\boards\NRF52_DK\obj\zfp_lib_Debug\libada_drivers_library.a(nrf_svd-gpio.o)
 .text.nrf_svd__gpio__dirclr_registerIP
                0x0000000000000000       0x18 C:\GNAT\Ada_Drivers_Library\boards\NRF52_DK\obj\zfp_lib_Debug\libada_drivers_library.a(nrf_svd-gpio.o)
 .text.nrf_svd__gpio__Tlatch_pin_field_arrayBIP
                0x0000000000000000       0x14 C:\GNAT\Ada_Drivers_Library\boards\NRF52_DK\obj\zfp_lib_Debug\libada_drivers_library.a(nrf_svd-gpio.o)
 .text.nrf_svd__gpio__latch_registerEQ__E156s.6227
                0x0000000000000000       0x48 C:\GNAT\Ada_Drivers_Library\boards\NRF52_DK\obj\zfp_lib_Debug\libada_drivers_library.a(nrf_svd-gpio.o)
 .text.nrf_svd__gpio__latch_registerEQ
                0x0000000000000000       0x78 C:\GNAT\Ada_Drivers_Library\boards\NRF52_DK\obj\zfp_lib_Debug\libada_drivers_library.a(nrf_svd-gpio.o)
 .text.nrf_svd__gpio__latch_registerIP
                0x0000000000000000       0x18 C:\GNAT\Ada_Drivers_Library\boards\NRF52_DK\obj\zfp_lib_Debug\libada_drivers_library.a(nrf_svd-gpio.o)
 .text.nrf_svd__gpio__detectmode_registerIP
                0x0000000000000000       0x30 C:\GNAT\Ada_Drivers_Library\boards\NRF52_DK\obj\zfp_lib_Debug\libada_drivers_library.a(nrf_svd-gpio.o)
 .text.nrf_svd__gpio__pin_cnf_registerIP
                0x0000000000000000       0x84 C:\GNAT\Ada_Drivers_Library\boards\NRF52_DK\obj\zfp_lib_Debug\libada_drivers_library.a(nrf_svd-gpio.o)
 .text.nrf_svd__gpio__Tpin_cnf_registersBIP
                0x0000000000000000       0x3c C:\GNAT\Ada_Drivers_Library\boards\NRF52_DK\obj\zfp_lib_Debug\libada_drivers_library.a(nrf_svd-gpio.o)
 .rodata        0x0000000000000000       0x1c C:\GNAT\Ada_Drivers_Library\boards\NRF52_DK\obj\zfp_lib_Debug\libada_drivers_library.a(nrf_svd-gpio.o)
 .text.nrf_svd__gpio__gpio_peripheralEQ
                0x0000000000000000       0x18 C:\GNAT\Ada_Drivers_Library\boards\NRF52_DK\obj\zfp_lib_Debug\libada_drivers_library.a(nrf_svd-gpio.o)
 .text.nrf_svd__gpio__gpio_peripheralIP
                0x0000000000000000       0x30 C:\GNAT\Ada_Drivers_Library\boards\NRF52_DK\obj\zfp_lib_Debug\libada_drivers_library.a(nrf_svd-gpio.o)
 .rodata.nrf_svd__gpio__pin_cnf_pull_fieldA
                0x0000000000000000        0x4 C:\GNAT\Ada_Drivers_Library\boards\NRF52_DK\obj\zfp_lib_Debug\libada_drivers_library.a(nrf_svd-gpio.o)
 .rodata.nrf_svd__gpio__pin_cnf_sense_fieldA
                0x0000000000000000        0x4 C:\GNAT\Ada_Drivers_Library\boards\NRF52_DK\obj\zfp_lib_Debug\libada_drivers_library.a(nrf_svd-gpio.o)
 .rodata.nrf_svd__gpio__gpio_periph
                0x0000000000000000        0x4 C:\GNAT\Ada_Drivers_Library\boards\NRF52_DK\obj\zfp_lib_Debug\libada_drivers_library.a(nrf_svd-gpio.o)
 .text          0x0000000000000000        0x0 C:\GNAT\Ada_Drivers_Library\boards\NRF52_DK\obj\zfp_lib_Debug\libada_drivers_library.a(nrf_svd-twi.o)
 .data          0x0000000000000000        0x0 C:\GNAT\Ada_Drivers_Library\boards\NRF52_DK\obj\zfp_lib_Debug\libada_drivers_library.a(nrf_svd-twi.o)
 .bss           0x0000000000000000        0x0 C:\GNAT\Ada_Drivers_Library\boards\NRF52_DK\obj\zfp_lib_Debug\libada_drivers_library.a(nrf_svd-twi.o)
 .text.nrf_svd__twi__enable_enable_fieldRP
                0x0000000000000000       0x34 C:\GNAT\Ada_Drivers_Library\boards\NRF52_DK\obj\zfp_lib_Debug\libada_drivers_library.a(nrf_svd-twi.o)
 .text.nrf_svd__twi__shorts_registerIP
                0x0000000000000000       0x3c C:\GNAT\Ada_Drivers_Library\boards\NRF52_DK\obj\zfp_lib_Debug\libada_drivers_library.a(nrf_svd-twi.o)
 .text.nrf_svd__twi__intenset_registerIP
                0x0000000000000000       0xbc C:\GNAT\Ada_Drivers_Library\boards\NRF52_DK\obj\zfp_lib_Debug\libada_drivers_library.a(nrf_svd-twi.o)
 .text.nrf_svd__twi__intenclr_registerIP
                0x0000000000000000       0xbc C:\GNAT\Ada_Drivers_Library\boards\NRF52_DK\obj\zfp_lib_Debug\libada_drivers_library.a(nrf_svd-twi.o)
 .text.nrf_svd__twi__enable_registerIP
                0x0000000000000000       0x30 C:\GNAT\Ada_Drivers_Library\boards\NRF52_DK\obj\zfp_lib_Debug\libada_drivers_library.a(nrf_svd-twi.o)
 .text.nrf_svd__twi__rxd_registerIP
                0x0000000000000000       0x14 C:\GNAT\Ada_Drivers_Library\boards\NRF52_DK\obj\zfp_lib_Debug\libada_drivers_library.a(nrf_svd-twi.o)
 .text.nrf_svd__twi__txd_registerIP
                0x0000000000000000       0x30 C:\GNAT\Ada_Drivers_Library\boards\NRF52_DK\obj\zfp_lib_Debug\libada_drivers_library.a(nrf_svd-twi.o)
 .text.nrf_svd__twi__address_registerIP
                0x0000000000000000       0x30 C:\GNAT\Ada_Drivers_Library\boards\NRF52_DK\obj\zfp_lib_Debug\libada_drivers_library.a(nrf_svd-twi.o)
 .text.nrf_svd__twi__twi_peripheralIP
                0x0000000000000000       0x64 C:\GNAT\Ada_Drivers_Library\boards\NRF52_DK\obj\zfp_lib_Debug\libada_drivers_library.a(nrf_svd-twi.o)
 .rodata.nrf_svd__twi__enable_enable_fieldA
                0x0000000000000000        0x2 C:\GNAT\Ada_Drivers_Library\boards\NRF52_DK\obj\zfp_lib_Debug\libada_drivers_library.a(nrf_svd-twi.o)
 .rodata.nrf_svd__twi__twi0_periph
                0x0000000000000000        0x4 C:\GNAT\Ada_Drivers_Library\boards\NRF52_DK\obj\zfp_lib_Debug\libada_drivers_library.a(nrf_svd-twi.o)
 .rodata.nrf_svd__twi__twi1_periph
                0x0000000000000000        0x4 C:\GNAT\Ada_Drivers_Library\boards\NRF52_DK\obj\zfp_lib_Debug\libada_drivers_library.a(nrf_svd-twi.o)
 .text          0x0000000000000000        0x0 C:\GNAT\Ada_Drivers_Library\boards\NRF52_DK\obj\zfp_lib_Debug\libada_drivers_library.a(hal-gpio.o)
 .data          0x0000000000000000        0x0 C:\GNAT\Ada_Drivers_Library\boards\NRF52_DK\obj\zfp_lib_Debug\libada_drivers_library.a(hal-gpio.o)
 .bss           0x0000000000000000        0x0 C:\GNAT\Ada_Drivers_Library\boards\NRF52_DK\obj\zfp_lib_Debug\libada_drivers_library.a(hal-gpio.o)
 .data.hal__gpio_E
                0x0000000000000000        0x2 C:\GNAT\Ada_Drivers_Library\boards\NRF52_DK\obj\zfp_lib_Debug\libada_drivers_library.a(hal-gpio.o)
 .rodata.hal__gpio__gpio_pointP
                0x0000000000000000        0x4 C:\GNAT\Ada_Drivers_Library\boards\NRF52_DK\obj\zfp_lib_Debug\libada_drivers_library.a(hal-gpio.o)
 .text          0x0000000000000000        0x0 C:\GNAT\Ada_Drivers_Library\boards\NRF52_DK\obj\zfp_lib_Debug\libada_drivers_library.a(hal-i2c.o)
 .data          0x0000000000000000        0x0 C:\GNAT\Ada_Drivers_Library\boards\NRF52_DK\obj\zfp_lib_Debug\libada_drivers_library.a(hal-i2c.o)
 .bss           0x0000000000000000        0x0 C:\GNAT\Ada_Drivers_Library\boards\NRF52_DK\obj\zfp_lib_Debug\libada_drivers_library.a(hal-i2c.o)
 .data.hal__i2c_E
                0x0000000000000000        0x2 C:\GNAT\Ada_Drivers_Library\boards\NRF52_DK\obj\zfp_lib_Debug\libada_drivers_library.a(hal-i2c.o)
 .rodata.hal__i2c__i2c_portP
                0x0000000000000000        0x4 C:\GNAT\Ada_Drivers_Library\boards\NRF52_DK\obj\zfp_lib_Debug\libada_drivers_library.a(hal-i2c.o)
 .text          0x0000000000000000        0x0 C:\GNAT\Ada_Drivers_Library\boards\NRF52_DK\obj\zfp_lib_Debug\libada_drivers_library.a(hal-spi.o)
 .data          0x0000000000000000        0x0 C:\GNAT\Ada_Drivers_Library\boards\NRF52_DK\obj\zfp_lib_Debug\libada_drivers_library.a(hal-spi.o)
 .bss           0x0000000000000000        0x0 C:\GNAT\Ada_Drivers_Library\boards\NRF52_DK\obj\zfp_lib_Debug\libada_drivers_library.a(hal-spi.o)
 .text.hal__spi__spi_data_8bIP
                0x0000000000000000       0x14 C:\GNAT\Ada_Drivers_Library\boards\NRF52_DK\obj\zfp_lib_Debug\libada_drivers_library.a(hal-spi.o)
 .text.hal__spi__spi_data_16bIP
                0x0000000000000000       0x14 C:\GNAT\Ada_Drivers_Library\boards\NRF52_DK\obj\zfp_lib_Debug\libada_drivers_library.a(hal-spi.o)
 .data.hal__spi_E
                0x0000000000000000        0x2 C:\GNAT\Ada_Drivers_Library\boards\NRF52_DK\obj\zfp_lib_Debug\libada_drivers_library.a(hal-spi.o)
 .rodata.hal__spi__spi_portP
                0x0000000000000000        0x4 C:\GNAT\Ada_Drivers_Library\boards\NRF52_DK\obj\zfp_lib_Debug\libada_drivers_library.a(hal-spi.o)
 .text          0x0000000000000000        0x0 C:\GNAT\Ada_Drivers_Library\boards\NRF52_DK\obj\zfp_lib_Debug\libada_drivers_library.a(hal-time.o)
 .data          0x0000000000000000        0x0 C:\GNAT\Ada_Drivers_Library\boards\NRF52_DK\obj\zfp_lib_Debug\libada_drivers_library.a(hal-time.o)
 .bss           0x0000000000000000        0x0 C:\GNAT\Ada_Drivers_Library\boards\NRF52_DK\obj\zfp_lib_Debug\libada_drivers_library.a(hal-time.o)
 .data.hal__time_E
                0x0000000000000000        0x2 C:\GNAT\Ada_Drivers_Library\boards\NRF52_DK\obj\zfp_lib_Debug\libada_drivers_library.a(hal-time.o)
 .rodata.hal__time__delaysP
                0x0000000000000000        0x4 C:\GNAT\Ada_Drivers_Library\boards\NRF52_DK\obj\zfp_lib_Debug\libada_drivers_library.a(hal-time.o)
 .text          0x0000000000000000        0x0 C:\GNAT\Ada_Drivers_Library\boards\NRF52_DK\obj\zfp_lib_Debug\libada_drivers_library.a(hal-uart.o)
 .data          0x0000000000000000        0x0 C:\GNAT\Ada_Drivers_Library\boards\NRF52_DK\obj\zfp_lib_Debug\libada_drivers_library.a(hal-uart.o)
 .bss           0x0000000000000000        0x0 C:\GNAT\Ada_Drivers_Library\boards\NRF52_DK\obj\zfp_lib_Debug\libada_drivers_library.a(hal-uart.o)
 .text.hal__uart__uart_data_8bIP
                0x0000000000000000       0x14 C:\GNAT\Ada_Drivers_Library\boards\NRF52_DK\obj\zfp_lib_Debug\libada_drivers_library.a(hal-uart.o)
 .text.hal__uart__uart_data_9bIP
                0x0000000000000000       0x14 C:\GNAT\Ada_Drivers_Library\boards\NRF52_DK\obj\zfp_lib_Debug\libada_drivers_library.a(hal-uart.o)
 .data.hal__uart_E
                0x0000000000000000        0x2 C:\GNAT\Ada_Drivers_Library\boards\NRF52_DK\obj\zfp_lib_Debug\libada_drivers_library.a(hal-uart.o)
 .rodata.hal__uart__uart_portP
                0x0000000000000000        0x4 C:\GNAT\Ada_Drivers_Library\boards\NRF52_DK\obj\zfp_lib_Debug\libada_drivers_library.a(hal-uart.o)
 .text          0x0000000000000000        0x0 C:\gnat\2020-arm-elf\arm-eabi\lib\gnat\zfp-cortex-m4f\adalib\libgnat.a(a-elchha.o)
 .data          0x0000000000000000        0x0 C:\gnat\2020-arm-elf\arm-eabi\lib\gnat\zfp-cortex-m4f\adalib\libgnat.a(a-elchha.o)
 .bss           0x0000000000000000        0x0 C:\gnat\2020-arm-elf\arm-eabi\lib\gnat\zfp-cortex-m4f\adalib\libgnat.a(a-elchha.o)
 .data.ada__exceptions__last_chance_handler_E
                0x0000000000000000        0x2 C:\gnat\2020-arm-elf\arm-eabi\lib\gnat\zfp-cortex-m4f\adalib\libgnat.a(a-elchha.o)
 .data          0x0000000000000000        0x0 C:\gnat\2020-arm-elf\arm-eabi\lib\gnat\zfp-cortex-m4f\adalib\libgnat.a(breakpoint_handler-cortexm.o)
 .bss           0x0000000000000000        0x0 C:\gnat\2020-arm-elf\arm-eabi\lib\gnat\zfp-cortex-m4f\adalib\libgnat.a(breakpoint_handler-cortexm.o)
 .text          0x0000000000000000        0x0 C:\gnat\2020-arm-elf\arm-eabi\lib\gnat\zfp-cortex-m4f\adalib\libgnat.a(g-io.o)
 .data          0x0000000000000000        0x0 C:\gnat\2020-arm-elf\arm-eabi\lib\gnat\zfp-cortex-m4f\adalib\libgnat.a(g-io.o)
 .bss           0x0000000000000000        0x0 C:\gnat\2020-arm-elf\arm-eabi\lib\gnat\zfp-cortex-m4f\adalib\libgnat.a(g-io.o)
 .data.gnat__io_E
                0x0000000000000000        0x2 C:\gnat\2020-arm-elf\arm-eabi\lib\gnat\zfp-cortex-m4f\adalib\libgnat.a(g-io.o)
 .text          0x0000000000000000        0x0 C:\gnat\2020-arm-elf\arm-eabi\lib\gnat\zfp-cortex-m4f\adalib\libgnat.a(s-assert.o)
 .data          0x0000000000000000        0x0 C:\gnat\2020-arm-elf\arm-eabi\lib\gnat\zfp-cortex-m4f\adalib\libgnat.a(s-assert.o)
 .bss           0x0000000000000000        0x0 C:\gnat\2020-arm-elf\arm-eabi\lib\gnat\zfp-cortex-m4f\adalib\libgnat.a(s-assert.o)
 .data.system__assertions_E
                0x0000000000000000        0x2 C:\gnat\2020-arm-elf\arm-eabi\lib\gnat\zfp-cortex-m4f\adalib\libgnat.a(s-assert.o)
 .data.system__assertions__assert_failure
                0x0000000000000000       0x18 C:\gnat\2020-arm-elf\arm-eabi\lib\gnat\zfp-cortex-m4f\adalib\libgnat.a(s-assert.o)
 .rodata.system__assertions__R2s
                0x0000000000000000        0x4 C:\gnat\2020-arm-elf\arm-eabi\lib\gnat\zfp-cortex-m4f\adalib\libgnat.a(s-assert.o)
 .rodata.system__assertions__assert_failureE
                0x0000000000000000        0x1 C:\gnat\2020-arm-elf\arm-eabi\lib\gnat\zfp-cortex-m4f\adalib\libgnat.a(s-assert.o)
 .text          0x0000000000000000        0x0 C:\gnat\2020-arm-elf\arm-eabi\lib\gnat\zfp-cortex-m4f\adalib\libgnat.a(s-macres.o)
 .data          0x0000000000000000        0x0 C:\gnat\2020-arm-elf\arm-eabi\lib\gnat\zfp-cortex-m4f\adalib\libgnat.a(s-macres.o)
 .bss           0x0000000000000000        0x0 C:\gnat\2020-arm-elf\arm-eabi\lib\gnat\zfp-cortex-m4f\adalib\libgnat.a(s-macres.o)
 .text.abort    0x0000000000000000        0x8 C:\gnat\2020-arm-elf\arm-eabi\lib\gnat\zfp-cortex-m4f\adalib\libgnat.a(s-macres.o)
 .data.system__machine_reset_E
                0x0000000000000000        0x2 C:\gnat\2020-arm-elf\arm-eabi\lib\gnat\zfp-cortex-m4f\adalib\libgnat.a(s-macres.o)
 .text          0x0000000000000000        0x0 C:\gnat\2020-arm-elf\arm-eabi\lib\gnat\zfp-cortex-m4f\adalib\libgnat.a(s-memcop.o)
 .data          0x0000000000000000        0x0 C:\gnat\2020-arm-elf\arm-eabi\lib\gnat\zfp-cortex-m4f\adalib\libgnat.a(s-memcop.o)
 .bss           0x0000000000000000        0x0 C:\gnat\2020-arm-elf\arm-eabi\lib\gnat\zfp-cortex-m4f\adalib\libgnat.a(s-memcop.o)
 .data.system__memory_copy_E
                0x0000000000000000        0x2 C:\gnat\2020-arm-elf\arm-eabi\lib\gnat\zfp-cortex-m4f\adalib\libgnat.a(s-memcop.o)
 .text          0x0000000000000000        0x0 C:\gnat\2020-arm-elf\arm-eabi\lib\gnat\zfp-cortex-m4f\adalib\libgnat.a(s-memset.o)
 .data          0x0000000000000000        0x0 C:\gnat\2020-arm-elf\arm-eabi\lib\gnat\zfp-cortex-m4f\adalib\libgnat.a(s-memset.o)
 .bss           0x0000000000000000        0x0 C:\gnat\2020-arm-elf\arm-eabi\lib\gnat\zfp-cortex-m4f\adalib\libgnat.a(s-memset.o)
 .data.system__memory_set_E
                0x0000000000000000        0x2 C:\gnat\2020-arm-elf\arm-eabi\lib\gnat\zfp-cortex-m4f\adalib\libgnat.a(s-memset.o)
 .text          0x0000000000000000        0x0 C:\gnat\2020-arm-elf\arm-eabi\lib\gnat\zfp-cortex-m4f\adalib\libgnat.a(s-secsta.o)
 .data          0x0000000000000000        0x0 C:\gnat\2020-arm-elf\arm-eabi\lib\gnat\zfp-cortex-m4f\adalib\libgnat.a(s-secsta.o)
 .bss           0x0000000000000000        0x0 C:\gnat\2020-arm-elf\arm-eabi\lib\gnat\zfp-cortex-m4f\adalib\libgnat.a(s-secsta.o)
 .text.system__secondary_stack__memoryIP
                0x0000000000000000        0x4 C:\gnat\2020-arm-elf\arm-eabi\lib\gnat\zfp-cortex-m4f\adalib\libgnat.a(s-secsta.o)
 .text.system__secondary_stack__ss_allocate
                0x0000000000000000       0x60 C:\gnat\2020-arm-elf\arm-eabi\lib\gnat\zfp-cortex-m4f\adalib\libgnat.a(s-secsta.o)
 .text.system__secondary_stack__ss_get_max
                0x0000000000000000       0x10 C:\gnat\2020-arm-elf\arm-eabi\lib\gnat\zfp-cortex-m4f\adalib\libgnat.a(s-secsta.o)
 .text.system__secondary_stack__ss_init
                0x0000000000000000       0x6c C:\gnat\2020-arm-elf\arm-eabi\lib\gnat\zfp-cortex-m4f\adalib\libgnat.a(s-secsta.o)
 .text.system__secondary_stack__ss_mark
                0x0000000000000000        0xc C:\gnat\2020-arm-elf\arm-eabi\lib\gnat\zfp-cortex-m4f\adalib\libgnat.a(s-secsta.o)
 .text.system__secondary_stack__ss_release
                0x0000000000000000        0xc C:\gnat\2020-arm-elf\arm-eabi\lib\gnat\zfp-cortex-m4f\adalib\libgnat.a(s-secsta.o)
 .rodata        0x0000000000000000        0xd C:\gnat\2020-arm-elf\arm-eabi\lib\gnat\zfp-cortex-m4f\adalib\libgnat.a(s-secsta.o)
 .bss.system__secondary_stack__ss_pool
                0x0000000000000000        0x4 C:\gnat\2020-arm-elf\arm-eabi\lib\gnat\zfp-cortex-m4f\adalib\libgnat.a(s-secsta.o)
 .data.system__secondary_stack_E
                0x0000000000000000        0x2 C:\gnat\2020-arm-elf\arm-eabi\lib\gnat\zfp-cortex-m4f\adalib\libgnat.a(s-secsta.o)
 .data.system__secondary_stack__num_of_assigned_stacks
                0x0000000000000000        0x4 C:\gnat\2020-arm-elf\arm-eabi\lib\gnat\zfp-cortex-m4f\adalib\libgnat.a(s-secsta.o)
 .text          0x0000000000000000        0x0 C:\gnat\2020-arm-elf\arm-eabi\lib\gnat\zfp-cortex-m4f\adalib\libgnat.a(s-sssita.o)
 .data          0x0000000000000000        0x0 C:\gnat\2020-arm-elf\arm-eabi\lib\gnat\zfp-cortex-m4f\adalib\libgnat.a(s-sssita.o)
 .bss           0x0000000000000000        0x0 C:\gnat\2020-arm-elf\arm-eabi\lib\gnat\zfp-cortex-m4f\adalib\libgnat.a(s-sssita.o)
 .text.__gnat_get_secondary_stack
                0x0000000000000000       0x1c C:\gnat\2020-arm-elf\arm-eabi\lib\gnat\zfp-cortex-m4f\adalib\libgnat.a(s-sssita.o)
 .data.system__secondary_stack__single_task__secondary_stack
                0x0000000000000000        0x4 C:\gnat\2020-arm-elf\arm-eabi\lib\gnat\zfp-cortex-m4f\adalib\libgnat.a(s-sssita.o)
 .comment       0x0000000000000000       0x3e C:\gnat\2020-arm-elf\arm-eabi\lib\gnat\zfp-cortex-m4f\adalib\libgnat.a(s-sssita.o)
 .ARM.attributes
                0x0000000000000000       0x32 C:\gnat\2020-arm-elf\arm-eabi\lib\gnat\zfp-cortex-m4f\adalib\libgnat.a(s-sssita.o)
 .text          0x0000000000000000        0x0 C:\gnat\2020-arm-elf\arm-eabi\lib\gnat\zfp-cortex-m4f\adalib\libgnat.a(s-textio.o)
 .data          0x0000000000000000        0x0 C:\gnat\2020-arm-elf\arm-eabi\lib\gnat\zfp-cortex-m4f\adalib\libgnat.a(s-textio.o)
 .bss           0x0000000000000000        0x0 C:\gnat\2020-arm-elf\arm-eabi\lib\gnat\zfp-cortex-m4f\adalib\libgnat.a(s-textio.o)
 .text.system__text_io__is_rx_ready
                0x0000000000000000        0x4 C:\gnat\2020-arm-elf\arm-eabi\lib\gnat\zfp-cortex-m4f\adalib\libgnat.a(s-textio.o)
 .text.system__text_io__get
                0x0000000000000000        0x4 C:\gnat\2020-arm-elf\arm-eabi\lib\gnat\zfp-cortex-m4f\adalib\libgnat.a(s-textio.o)
 .data.system__text_io_E
                0x0000000000000000        0x2 C:\gnat\2020-arm-elf\arm-eabi\lib\gnat\zfp-cortex-m4f\adalib\libgnat.a(s-textio.o)
 .text          0x0000000000000000        0x0 C:\gnat\2020-arm-elf\arm-eabi\lib\gnat\zfp-cortex-m4f\adalib\libgnat.a(a-except.o)
 .data          0x0000000000000000        0x0 C:\gnat\2020-arm-elf\arm-eabi\lib\gnat\zfp-cortex-m4f\adalib\libgnat.a(a-except.o)
 .bss           0x0000000000000000        0x0 C:\gnat\2020-arm-elf\arm-eabi\lib\gnat\zfp-cortex-m4f\adalib\libgnat.a(a-except.o)
 .data.ada__exceptions_E
                0x0000000000000000        0x2 C:\gnat\2020-arm-elf\arm-eabi\lib\gnat\zfp-cortex-m4f\adalib\libgnat.a(a-except.o)
 .rodata.ada__exceptions__null_id
                0x0000000000000000        0x4 C:\gnat\2020-arm-elf\arm-eabi\lib\gnat\zfp-cortex-m4f\adalib\libgnat.a(a-except.o)
 .rodata.ada__exceptions__empty_c_string
                0x0000000000000000        0x4 C:\gnat\2020-arm-elf\arm-eabi\lib\gnat\zfp-cortex-m4f\adalib\libgnat.a(a-except.o)
 .text          0x0000000000000000        0x0 C:\gnat\2020-arm-elf\arm-eabi\lib\gnat\zfp-cortex-m4f\adalib\libgnat.a(s-semiho.o)
 .data          0x0000000000000000        0x0 C:\gnat\2020-arm-elf\arm-eabi\lib\gnat\zfp-cortex-m4f\adalib\libgnat.a(s-semiho.o)
 .bss           0x0000000000000000        0x0 C:\gnat\2020-arm-elf\arm-eabi\lib\gnat\zfp-cortex-m4f\adalib\libgnat.a(s-semiho.o)
 .text.system__semihosting__TbufferBIP
                0x0000000000000000        0x4 C:\gnat\2020-arm-elf\arm-eabi\lib\gnat\zfp-cortex-m4f\adalib\libgnat.a(s-semiho.o)
 .text.system__semihosting__put__2
                0x0000000000000000       0x20 C:\gnat\2020-arm-elf\arm-eabi\lib\gnat\zfp-cortex-m4f\adalib\libgnat.a(s-semiho.o)
 .text.system__semihosting__get
                0x0000000000000000       0x10 C:\gnat\2020-arm-elf\arm-eabi\lib\gnat\zfp-cortex-m4f\adalib\libgnat.a(s-semiho.o)
 .data.system__semihosting_E
                0x0000000000000000        0x2 C:\gnat\2020-arm-elf\arm-eabi\lib\gnat\zfp-cortex-m4f\adalib\libgnat.a(s-semiho.o)

Memory Configuration

Name             Origin             Length             Attributes
flash            0x0000000000000000 0x0000000000080000 xr
ram              0x0000000020000000 0x0000000000010000 xrw
*default*        0x0000000000000000 0xffffffffffffffff

Linker script and memory map

LOAD main.o
LOAD b__main.o
LOAD C:\GNAT\Ada_Drivers_Library\boards\NRF52_DK\obj\zfp_lib_Debug\libada_drivers_library.a
LOAD C:\gnat\2020-arm-elf\arm-eabi\lib\gnat\zfp-cortex-m4f\adalib\libgnat.a
START GROUP
LOAD c:/gnat/2020-arm-elf/bin/../lib/gcc/arm-eabi/9.3.1/thumb/v7e-m/fpv4-sp/hard\libgcc.a
END GROUP
                0x0000000000000000                __DYNAMIC = 0x0
                0x0000000000000800                _DEFAULT_STACK_SIZE = 0x800

.text           0x0000000000000000     0x40e8
 *(.vectors)
 .vectors       0x0000000000000000      0x240 C:\GNAT\Ada_Drivers_Library\boards\NRF52_DK\obj\zfp_lib_Debug\libada_drivers_library.a(crt0.o)
                0x0000000000000000                __vectors
 *(.text .text.* .gnu.linkonce.t*)
 .text._ada_main
                0x0000000000000240       0x4c main.o
                0x0000000000000240                _ada_main
 .text.ada_main__Tsec_default_sized_stacksBIP
                0x000000000000028c       0x44 b__main.o
                0x000000000000028c                ada_main__Tsec_default_sized_stacksBIP
 .text.adainit  0x00000000000002d0      0x16c b__main.o
                0x00000000000002d0                adainit
 .text.main     0x000000000000043c       0x1c b__main.o
                0x000000000000043c                main
 .text.ada_main___elabb
                0x0000000000000458       0x1c b__main.o
                0x0000000000000458                ada_main___elabb
 .text.cortex_m__nvic__enable_interrupt
                0x0000000000000474       0x68 C:\GNAT\Ada_Drivers_Library\boards\NRF52_DK\obj\zfp_lib_Debug\libada_drivers_library.a(cortex_m-nvic.o)
                0x0000000000000474                cortex_m__nvic__enable_interrupt
 .text.cortex_m__nvic___elabs
                0x00000000000004dc        0xc C:\GNAT\Ada_Drivers_Library\boards\NRF52_DK\obj\zfp_lib_Debug\libada_drivers_library.a(cortex_m-nvic.o)
                0x00000000000004dc                cortex_m__nvic___elabs
 *fill*         0x00000000000004e8      0x118 
 .text          0x0000000000000600       0x58 C:\GNAT\Ada_Drivers_Library\boards\NRF52_DK\obj\zfp_lib_Debug\libada_drivers_library.a(crt0.o)
                0x0000000000000600                __gnat_irq_trap
                0x0000000000000600                __unknown_interrupt_handler
                0x0000000000000602                __gnat_sv_call_trap
                0x0000000000000604                __gnat_pend_sv_trap
                0x0000000000000606                __gnat_sys_tick_trap
                0x000000000000060a                _start
 .text.nrf__clock__set_low_freq_source
                0x0000000000000658       0x5c C:\GNAT\Ada_Drivers_Library\boards\NRF52_DK\obj\zfp_lib_Debug\libada_drivers_library.a(nrf-clock.o)
                0x0000000000000658                nrf__clock__set_low_freq_source
 .text.nrf__clock__low_freq_running
                0x00000000000006b4       0x30 C:\GNAT\Ada_Drivers_Library\boards\NRF52_DK\obj\zfp_lib_Debug\libada_drivers_library.a(nrf-clock.o)
                0x00000000000006b4                nrf__clock__low_freq_running
 .text.nrf__clock__start_low_freq
                0x00000000000006e4       0x10 C:\GNAT\Ada_Drivers_Library\boards\NRF52_DK\obj\zfp_lib_Debug\libada_drivers_library.a(nrf-clock.o)
                0x00000000000006e4                nrf__clock__start_low_freq
 .text.nrf__device__errata_12
                0x00000000000006f4       0x58 C:\GNAT\Ada_Drivers_Library\boards\NRF52_DK\obj\zfp_lib_Debug\libada_drivers_library.a(nrf-device.o)
 .text.nrf__device__errata_16
                0x000000000000074c       0x44 C:\GNAT\Ada_Drivers_Library\boards\NRF52_DK\obj\zfp_lib_Debug\libada_drivers_library.a(nrf-device.o)
 .text.nrf__device__errata_31
                0x0000000000000790       0x10 C:\GNAT\Ada_Drivers_Library\boards\NRF52_DK\obj\zfp_lib_Debug\libada_drivers_library.a(nrf-device.o)
 .text.nrf__device__errata_32
                0x00000000000007a0       0x10 C:\GNAT\Ada_Drivers_Library\boards\NRF52_DK\obj\zfp_lib_Debug\libada_drivers_library.a(nrf-device.o)
 .text.nrf__device__errata_36
                0x00000000000007b0       0x10 C:\GNAT\Ada_Drivers_Library\boards\NRF52_DK\obj\zfp_lib_Debug\libada_drivers_library.a(nrf-device.o)
 .text.nrf__device__errata_37
                0x00000000000007c0       0x10 C:\GNAT\Ada_Drivers_Library\boards\NRF52_DK\obj\zfp_lib_Debug\libada_drivers_library.a(nrf-device.o)
 .text.nrf__device__errata_57
                0x00000000000007d0       0x10 C:\GNAT\Ada_Drivers_Library\boards\NRF52_DK\obj\zfp_lib_Debug\libada_drivers_library.a(nrf-device.o)
 .text.nrf__device__errata_66
                0x00000000000007e0       0x44 C:\GNAT\Ada_Drivers_Library\boards\NRF52_DK\obj\zfp_lib_Debug\libada_drivers_library.a(nrf-device.o)
 .text.nrf__device__errata_108
                0x0000000000000824       0x10 C:\GNAT\Ada_Drivers_Library\boards\NRF52_DK\obj\zfp_lib_Debug\libada_drivers_library.a(nrf-device.o)
 .text.nrf__device__errata_136
                0x0000000000000834       0x10 C:\GNAT\Ada_Drivers_Library\boards\NRF52_DK\obj\zfp_lib_Debug\libada_drivers_library.a(nrf-device.o)
 .text.nrf__device__errata_182
                0x0000000000000844       0x40 C:\GNAT\Ada_Drivers_Library\boards\NRF52_DK\obj\zfp_lib_Debug\libada_drivers_library.a(nrf-device.o)
 .text.nrf__device___elabb
                0x0000000000000884      0x408 C:\GNAT\Ada_Drivers_Library\boards\NRF52_DK\obj\zfp_lib_Debug\libada_drivers_library.a(nrf-device.o)
                0x0000000000000884                nrf__device___elabb
 .text.nrf__device___elabs
                0x0000000000000c8c      0x304 C:\GNAT\Ada_Drivers_Library\boards\NRF52_DK\obj\zfp_lib_Debug\libada_drivers_library.a(nrf-device.o)
                0x0000000000000c8c                nrf__device___elabs
 .text.nrf__events__enable_interrupt
                0x0000000000000f90       0x70 C:\GNAT\Ada_Drivers_Library\boards\NRF52_DK\obj\zfp_lib_Debug\libada_drivers_library.a(nrf-events.o)
                0x0000000000000f90                nrf__events__enable_interrupt
 .text.nrf__events__clear
                0x0000000000001000       0x30 C:\GNAT\Ada_Drivers_Library\boards\NRF52_DK\obj\zfp_lib_Debug\libada_drivers_library.a(nrf-events.o)
                0x0000000000001000                nrf__events__clear
 .text.nrf__gpio__gpio_configurationIP
                0x0000000000001030       0x24 C:\GNAT\Ada_Drivers_Library\boards\NRF52_DK\obj\zfp_lib_Debug\libada_drivers_library.a(nrf-gpio.o)
                0x0000000000001030                nrf__gpio__gpio_configurationIP
 .text.nrf__gpio___size
                0x0000000000001054       0x20 C:\GNAT\Ada_Drivers_Library\boards\NRF52_DK\obj\zfp_lib_Debug\libada_drivers_library.a(nrf-gpio.o)
                0x0000000000001054                nrf__gpio___size
 .text.nrf__gpio__Oeq
                0x0000000000001074       0x28 C:\GNAT\Ada_Drivers_Library\boards\NRF52_DK\obj\zfp_lib_Debug\libada_drivers_library.a(nrf-gpio.o)
                0x0000000000001074                nrf__gpio__Oeq
 .text.nrf__gpio___assign
                0x000000000000109c       0x28 C:\GNAT\Ada_Drivers_Library\boards\NRF52_DK\obj\zfp_lib_Debug\libada_drivers_library.a(nrf-gpio.o)
                0x000000000000109c                nrf__gpio___assign
 .text.nrf__gpio__support
                0x00000000000010c4       0x2c C:\GNAT\Ada_Drivers_Library\boards\NRF52_DK\obj\zfp_lib_Debug\libada_drivers_library.a(nrf-gpio.o)
                0x00000000000010c4                nrf__gpio__support
 .text.nrf__gpio__mode
                0x00000000000010f0       0x58 C:\GNAT\Ada_Drivers_Library\boards\NRF52_DK\obj\zfp_lib_Debug\libada_drivers_library.a(nrf-gpio.o)
                0x00000000000010f0                nrf__gpio__mode
 .text.nrf__gpio__set_mode
                0x0000000000001148       0xec C:\GNAT\Ada_Drivers_Library\boards\NRF52_DK\obj\zfp_lib_Debug\libada_drivers_library.a(nrf-gpio.o)
                0x0000000000001148                nrf__gpio__set_mode
 .text.nrf__gpio__set
                0x0000000000001234       0x3c C:\GNAT\Ada_Drivers_Library\boards\NRF52_DK\obj\zfp_lib_Debug\libada_drivers_library.a(nrf-gpio.o)
                0x0000000000001234                nrf__gpio__set
 .text.nrf__gpio__pull_resistor
                0x0000000000001270       0x5c C:\GNAT\Ada_Drivers_Library\boards\NRF52_DK\obj\zfp_lib_Debug\libada_drivers_library.a(nrf-gpio.o)
                0x0000000000001270                nrf__gpio__pull_resistor
 .text.nrf__gpio__set_pull_resistor
                0x00000000000012cc       0xac C:\GNAT\Ada_Drivers_Library\boards\NRF52_DK\obj\zfp_lib_Debug\libada_drivers_library.a(nrf-gpio.o)
                0x00000000000012cc                nrf__gpio__set_pull_resistor
 .text.nrf__gpio__set__2
                0x0000000000001378       0x50 C:\GNAT\Ada_Drivers_Library\boards\NRF52_DK\obj\zfp_lib_Debug\libada_drivers_library.a(nrf-gpio.o)
                0x0000000000001378                nrf__gpio__set__2
 .text.nrf__gpio__clear
                0x00000000000013c8       0x54 C:\GNAT\Ada_Drivers_Library\boards\NRF52_DK\obj\zfp_lib_Debug\libada_drivers_library.a(nrf-gpio.o)
                0x00000000000013c8                nrf__gpio__clear
 .text.nrf__gpio__toggle
                0x000000000000141c       0x48 C:\GNAT\Ada_Drivers_Library\boards\NRF52_DK\obj\zfp_lib_Debug\libada_drivers_library.a(nrf-gpio.o)
                0x000000000000141c                nrf__gpio__toggle
 .text.nrf__gpio__configure_io
                0x0000000000001464      0x248 C:\GNAT\Ada_Drivers_Library\boards\NRF52_DK\obj\zfp_lib_Debug\libada_drivers_library.a(nrf-gpio.o)
                0x0000000000001464                nrf__gpio__configure_io
 .text.nrf__interrupts__enable
                0x00000000000016ac       0x18 C:\GNAT\Ada_Drivers_Library\boards\NRF52_DK\obj\zfp_lib_Debug\libada_drivers_library.a(nrf-interrupts.o)
                0x00000000000016ac                nrf__interrupts__enable
 .text.nrf__interrupts__register
                0x00000000000016c4       0x34 C:\GNAT\Ada_Drivers_Library\boards\NRF52_DK\obj\zfp_lib_Debug\libada_drivers_library.a(nrf-interrupts.o)
                0x00000000000016c4                nrf__interrupts__register
 .text.__adl_irq_handler
                0x00000000000016f8       0x5c C:\GNAT\Ada_Drivers_Library\boards\NRF52_DK\obj\zfp_lib_Debug\libada_drivers_library.a(nrf-interrupts.o)
                0x00000000000016f8                __adl_irq_handler
 .text.nrf__interrupts___elabb
                0x0000000000001754       0x18 C:\GNAT\Ada_Drivers_Library\boards\NRF52_DK\obj\zfp_lib_Debug\libada_drivers_library.a(nrf-interrupts.o)
                0x0000000000001754                nrf__interrupts___elabb
 .text.nrf__rtc__real_time_counterIP
                0x000000000000176c       0x1c C:\GNAT\Ada_Drivers_Library\boards\NRF52_DK\obj\zfp_lib_Debug\libada_drivers_library.a(nrf-rtc.o)
                0x000000000000176c                nrf__rtc__real_time_counterIP
 .text.nrf__rtc__start
                0x0000000000001788       0x18 C:\GNAT\Ada_Drivers_Library\boards\NRF52_DK\obj\zfp_lib_Debug\libada_drivers_library.a(nrf-rtc.o)
                0x0000000000001788                nrf__rtc__start
 .text.nrf__rtc__stop
                0x00000000000017a0       0x18 C:\GNAT\Ada_Drivers_Library\boards\NRF52_DK\obj\zfp_lib_Debug\libada_drivers_library.a(nrf-rtc.o)
                0x00000000000017a0                nrf__rtc__stop
 .text.nrf__rtc__clear
                0x00000000000017b8       0x18 C:\GNAT\Ada_Drivers_Library\boards\NRF52_DK\obj\zfp_lib_Debug\libada_drivers_library.a(nrf-rtc.o)
                0x00000000000017b8                nrf__rtc__clear
 .text.nrf__rtc__set_prescaler
                0x00000000000017d0       0x34 C:\GNAT\Ada_Drivers_Library\boards\NRF52_DK\obj\zfp_lib_Debug\libada_drivers_library.a(nrf-rtc.o)
                0x00000000000017d0                nrf__rtc__set_prescaler
 .text.nrf__rtc__set_compare
                0x0000000000001804       0x44 C:\GNAT\Ada_Drivers_Library\boards\NRF52_DK\obj\zfp_lib_Debug\libada_drivers_library.a(nrf-rtc.o)
                0x0000000000001804                nrf__rtc__set_compare
 .text.nrf__rtc__enable_event
                0x0000000000001848      0x164 C:\GNAT\Ada_Drivers_Library\boards\NRF52_DK\obj\zfp_lib_Debug\libada_drivers_library.a(nrf-rtc.o)
                0x0000000000001848                nrf__rtc__enable_event
 .text.nrf__spi_master__spi_masterIP
                0x00000000000019ac       0x30 C:\GNAT\Ada_Drivers_Library\boards\NRF52_DK\obj\zfp_lib_Debug\libada_drivers_library.a(nrf-spi_master.o)
                0x00000000000019ac                nrf__spi_master__spi_masterIP
 .text.nrf__spi_master___size__2
                0x00000000000019dc       0x20 C:\GNAT\Ada_Drivers_Library\boards\NRF52_DK\obj\zfp_lib_Debug\libada_drivers_library.a(nrf-spi_master.o)
                0x00000000000019dc                nrf__spi_master___size__2
 .text.nrf__spi_master__Oeq
                0x00000000000019fc       0x28 C:\GNAT\Ada_Drivers_Library\boards\NRF52_DK\obj\zfp_lib_Debug\libada_drivers_library.a(nrf-spi_master.o)
                0x00000000000019fc                nrf__spi_master__Oeq
 .text.nrf__spi_master___assign
                0x0000000000001a24       0x3c C:\GNAT\Ada_Drivers_Library\boards\NRF52_DK\obj\zfp_lib_Debug\libada_drivers_library.a(nrf-spi_master.o)
                0x0000000000001a24                nrf__spi_master___assign
 .text.nrf__spi_master__enable___postconditions.5988
                0x0000000000001a60       0x3c C:\GNAT\Ada_Drivers_Library\boards\NRF52_DK\obj\zfp_lib_Debug\libada_drivers_library.a(nrf-spi_master.o)
 .text.nrf__spi_master__enable
                0x0000000000001a9c       0x3c C:\GNAT\Ada_Drivers_Library\boards\NRF52_DK\obj\zfp_lib_Debug\libada_drivers_library.a(nrf-spi_master.o)
                0x0000000000001a9c                nrf__spi_master__enable
 .text.nrf__spi_master__disable___postconditions.5995
                0x0000000000001ad8       0x34 C:\GNAT\Ada_Drivers_Library\boards\NRF52_DK\obj\zfp_lib_Debug\libada_drivers_library.a(nrf-spi_master.o)
 .text.nrf__spi_master__disable
                0x0000000000001b0c       0x3c C:\GNAT\Ada_Drivers_Library\boards\NRF52_DK\obj\zfp_lib_Debug\libada_drivers_library.a(nrf-spi_master.o)
                0x0000000000001b0c                nrf__spi_master__disable
 .text.nrf__spi_master__enabled
                0x0000000000001b48       0x34 C:\GNAT\Ada_Drivers_Library\boards\NRF52_DK\obj\zfp_lib_Debug\libada_drivers_library.a(nrf-spi_master.o)
                0x0000000000001b48                nrf__spi_master__enabled
 .text.nrf__spi_master__configure
                0x0000000000001b7c      0x174 C:\GNAT\Ada_Drivers_Library\boards\NRF52_DK\obj\zfp_lib_Debug\libada_drivers_library.a(nrf-spi_master.o)
                0x0000000000001b7c                nrf__spi_master__configure
 .text.nrf__spi_master__disconnect
                0x0000000000001cf0       0x54 C:\GNAT\Ada_Drivers_Library\boards\NRF52_DK\obj\zfp_lib_Debug\libada_drivers_library.a(nrf-spi_master.o)
                0x0000000000001cf0                nrf__spi_master__disconnect
 .text.nrf__spi_master__data_size
                0x0000000000001d44       0x18 C:\GNAT\Ada_Drivers_Library\boards\NRF52_DK\obj\zfp_lib_Debug\libada_drivers_library.a(nrf-spi_master.o)
                0x0000000000001d44                nrf__spi_master__data_size
 .text.nrf__spi_master__transmit
                0x0000000000001d5c       0xc4 C:\GNAT\Ada_Drivers_Library\boards\NRF52_DK\obj\zfp_lib_Debug\libada_drivers_library.a(nrf-spi_master.o)
                0x0000000000001d5c                nrf__spi_master__transmit
 .text.nrf__spi_master__transmit__2
                0x0000000000001e20      0x258 C:\GNAT\Ada_Drivers_Library\boards\NRF52_DK\obj\zfp_lib_Debug\libada_drivers_library.a(nrf-spi_master.o)
                0x0000000000001e20                nrf__spi_master__transmit__2
 .text.nrf__spi_master__receive
                0x0000000000002078       0xbc C:\GNAT\Ada_Drivers_Library\boards\NRF52_DK\obj\zfp_lib_Debug\libada_drivers_library.a(nrf-spi_master.o)
                0x0000000000002078                nrf__spi_master__receive
 .text.nrf__spi_master__receive__2
                0x0000000000002134      0x224 C:\GNAT\Ada_Drivers_Library\boards\NRF52_DK\obj\zfp_lib_Debug\libada_drivers_library.a(nrf-spi_master.o)
                0x0000000000002134                nrf__spi_master__receive__2
 .text.nrf__tasks__trigger
                0x0000000000002358       0x30 C:\GNAT\Ada_Drivers_Library\boards\NRF52_DK\obj\zfp_lib_Debug\libada_drivers_library.a(nrf-tasks.o)
                0x0000000000002358                nrf__tasks__trigger
 .text.nrf__timers__timerIP
                0x0000000000002388       0x30 C:\GNAT\Ada_Drivers_Library\boards\NRF52_DK\obj\zfp_lib_Debug\libada_drivers_library.a(nrf-timers.o)
                0x0000000000002388                nrf__timers__timerIP
 .text.nrf__timers___size
                0x00000000000023b8       0x20 C:\GNAT\Ada_Drivers_Library\boards\NRF52_DK\obj\zfp_lib_Debug\libada_drivers_library.a(nrf-timers.o)
                0x00000000000023b8                nrf__timers___size
 .text.nrf__timers__Oeq
                0x00000000000023d8       0x28 C:\GNAT\Ada_Drivers_Library\boards\NRF52_DK\obj\zfp_lib_Debug\libada_drivers_library.a(nrf-timers.o)
                0x00000000000023d8                nrf__timers__Oeq
 .text.nrf__timers___assign
                0x0000000000002400       0x3c C:\GNAT\Ada_Drivers_Library\boards\NRF52_DK\obj\zfp_lib_Debug\libada_drivers_library.a(nrf-timers.o)
                0x0000000000002400                nrf__timers___assign
 .text.nrf__timers__start
                0x000000000000243c       0x1c C:\GNAT\Ada_Drivers_Library\boards\NRF52_DK\obj\zfp_lib_Debug\libada_drivers_library.a(nrf-timers.o)
                0x000000000000243c                nrf__timers__start
 .text.nrf__timers__stop
                0x0000000000002458       0x1c C:\GNAT\Ada_Drivers_Library\boards\NRF52_DK\obj\zfp_lib_Debug\libada_drivers_library.a(nrf-timers.o)
                0x0000000000002458                nrf__timers__stop
 .text.nrf__timers__clear
                0x0000000000002474       0x1c C:\GNAT\Ada_Drivers_Library\boards\NRF52_DK\obj\zfp_lib_Debug\libada_drivers_library.a(nrf-timers.o)
                0x0000000000002474                nrf__timers__clear
 .text.nrf__timers__set_prescaler
                0x0000000000002490       0x38 C:\GNAT\Ada_Drivers_Library\boards\NRF52_DK\obj\zfp_lib_Debug\libada_drivers_library.a(nrf-timers.o)
                0x0000000000002490                nrf__timers__set_prescaler
 .text.nrf__timers__set_mode
                0x00000000000024c8       0x50 C:\GNAT\Ada_Drivers_Library\boards\NRF52_DK\obj\zfp_lib_Debug\libada_drivers_library.a(nrf-timers.o)
                0x00000000000024c8                nrf__timers__set_mode
 .text.nrf__timers__set_bitmode___postconditions.6142
                0x0000000000002518       0x38 C:\GNAT\Ada_Drivers_Library\boards\NRF52_DK\obj\zfp_lib_Debug\libada_drivers_library.a(nrf-timers.o)
 .text.nrf__timers__set_bitmode
                0x0000000000002550       0x80 C:\GNAT\Ada_Drivers_Library\boards\NRF52_DK\obj\zfp_lib_Debug\libada_drivers_library.a(nrf-timers.o)
                0x0000000000002550                nrf__timers__set_bitmode
 .text.nrf__timers__bitmode
                0x00000000000025d0       0x50 C:\GNAT\Ada_Drivers_Library\boards\NRF52_DK\obj\zfp_lib_Debug\libada_drivers_library.a(nrf-timers.o)
                0x00000000000025d0                nrf__timers__bitmode
 .text.nrf__timers__compare_interrupt
                0x0000000000002620       0xb8 C:\GNAT\Ada_Drivers_Library\boards\NRF52_DK\obj\zfp_lib_Debug\libada_drivers_library.a(nrf-timers.o)
                0x0000000000002620                nrf__timers__compare_interrupt
 .text.nrf__timers__compare_shortcut
                0x00000000000026d8      0x180 C:\GNAT\Ada_Drivers_Library\boards\NRF52_DK\obj\zfp_lib_Debug\libada_drivers_library.a(nrf-timers.o)
                0x00000000000026d8                nrf__timers__compare_shortcut
 .text.nrf__timers__set_compare
                0x0000000000002858       0x2c C:\GNAT\Ada_Drivers_Library\boards\NRF52_DK\obj\zfp_lib_Debug\libada_drivers_library.a(nrf-timers.o)
                0x0000000000002858                nrf__timers__set_compare
 .text.nrf__timers__capture
                0x0000000000002884       0x28 C:\GNAT\Ada_Drivers_Library\boards\NRF52_DK\obj\zfp_lib_Debug\libada_drivers_library.a(nrf-timers.o)
                0x0000000000002884                nrf__timers__capture
 .text.nrf__timers__capture__2
                0x00000000000028ac       0x30 C:\GNAT\Ada_Drivers_Library\boards\NRF52_DK\obj\zfp_lib_Debug\libada_drivers_library.a(nrf-timers.o)
                0x00000000000028ac                nrf__timers__capture__2
 .text.nrf__timers__cc_register
                0x00000000000028dc       0x2c C:\GNAT\Ada_Drivers_Library\boards\NRF52_DK\obj\zfp_lib_Debug\libada_drivers_library.a(nrf-timers.o)
                0x00000000000028dc                nrf__timers__cc_register
 .text.nrf__timers__start_task
                0x0000000000002908       0x1c C:\GNAT\Ada_Drivers_Library\boards\NRF52_DK\obj\zfp_lib_Debug\libada_drivers_library.a(nrf-timers.o)
                0x0000000000002908                nrf__timers__start_task
 .text.nrf__timers__stop_task
                0x0000000000002924       0x1c C:\GNAT\Ada_Drivers_Library\boards\NRF52_DK\obj\zfp_lib_Debug\libada_drivers_library.a(nrf-timers.o)
                0x0000000000002924                nrf__timers__stop_task
 .text.nrf__timers__count_task
                0x0000000000002940       0x1c C:\GNAT\Ada_Drivers_Library\boards\NRF52_DK\obj\zfp_lib_Debug\libada_drivers_library.a(nrf-timers.o)
                0x0000000000002940                nrf__timers__count_task
 .text.nrf__timers__clear_task
                0x000000000000295c       0x1c C:\GNAT\Ada_Drivers_Library\boards\NRF52_DK\obj\zfp_lib_Debug\libada_drivers_library.a(nrf-timers.o)
                0x000000000000295c                nrf__timers__clear_task
 .text.nrf__timers__capture_task
                0x0000000000002978       0x28 C:\GNAT\Ada_Drivers_Library\boards\NRF52_DK\obj\zfp_lib_Debug\libada_drivers_library.a(nrf-timers.o)
                0x0000000000002978                nrf__timers__capture_task
 .text.nrf__timers__compare_event
                0x00000000000029a0       0x28 C:\GNAT\Ada_Drivers_Library\boards\NRF52_DK\obj\zfp_lib_Debug\libada_drivers_library.a(nrf-timers.o)
                0x00000000000029a0                nrf__timers__compare_event
 .text.nrf__twi__twi_masterIP
                0x00000000000029c8       0x34 C:\GNAT\Ada_Drivers_Library\boards\NRF52_DK\obj\zfp_lib_Debug\libada_drivers_library.a(nrf-twi.o)
                0x00000000000029c8                nrf__twi__twi_masterIP
 .text.nrf__twi___size__2
                0x00000000000029fc       0x20 C:\GNAT\Ada_Drivers_Library\boards\NRF52_DK\obj\zfp_lib_Debug\libada_drivers_library.a(nrf-twi.o)
                0x00000000000029fc                nrf__twi___size__2
 .text.nrf__twi__Oeq
                0x0000000000002a1c       0x40 C:\GNAT\Ada_Drivers_Library\boards\NRF52_DK\obj\zfp_lib_Debug\libada_drivers_library.a(nrf-twi.o)
                0x0000000000002a1c                nrf__twi__Oeq
 .text.nrf__twi___assign
                0x0000000000002a5c       0x3c C:\GNAT\Ada_Drivers_Library\boards\NRF52_DK\obj\zfp_lib_Debug\libada_drivers_library.a(nrf-twi.o)
                0x0000000000002a5c                nrf__twi___assign
 .text.nrf__twi__stop_sequence
                0x0000000000002a98       0x34 C:\GNAT\Ada_Drivers_Library\boards\NRF52_DK\obj\zfp_lib_Debug\libada_drivers_library.a(nrf-twi.o)
 .text.nrf__twi__enable
                0x0000000000002acc       0x2c C:\GNAT\Ada_Drivers_Library\boards\NRF52_DK\obj\zfp_lib_Debug\libada_drivers_library.a(nrf-twi.o)
                0x0000000000002acc                nrf__twi__enable
 .text.nrf__twi__disable
                0x0000000000002af8       0x2c C:\GNAT\Ada_Drivers_Library\boards\NRF52_DK\obj\zfp_lib_Debug\libada_drivers_library.a(nrf-twi.o)
                0x0000000000002af8                nrf__twi__disable
 .text.nrf__twi__enabled
                0x0000000000002b24       0x34 C:\GNAT\Ada_Drivers_Library\boards\NRF52_DK\obj\zfp_lib_Debug\libada_drivers_library.a(nrf-twi.o)
                0x0000000000002b24                nrf__twi__enabled
 .text.nrf__twi__configure
                0x0000000000002b58       0x64 C:\GNAT\Ada_Drivers_Library\boards\NRF52_DK\obj\zfp_lib_Debug\libada_drivers_library.a(nrf-twi.o)
                0x0000000000002b58                nrf__twi__configure
 .text.nrf__twi__disconnect
                0x0000000000002bbc       0x2c C:\GNAT\Ada_Drivers_Library\boards\NRF52_DK\obj\zfp_lib_Debug\libada_drivers_library.a(nrf-twi.o)
                0x0000000000002bbc                nrf__twi__disconnect
 .text.nrf__twi__master_transmit
                0x0000000000002be8      0x1a4 C:\GNAT\Ada_Drivers_Library\boards\NRF52_DK\obj\zfp_lib_Debug\libada_drivers_library.a(nrf-twi.o)
                0x0000000000002be8                nrf__twi__master_transmit
 .text.nrf__twi__master_receive
                0x0000000000002d8c      0x1fc C:\GNAT\Ada_Drivers_Library\boards\NRF52_DK\obj\zfp_lib_Debug\libada_drivers_library.a(nrf-twi.o)
                0x0000000000002d8c                nrf__twi__master_receive
 .text.nrf__twi__mem_write
                0x0000000000002f88      0x140 C:\GNAT\Ada_Drivers_Library\boards\NRF52_DK\obj\zfp_lib_Debug\libada_drivers_library.a(nrf-twi.o)
                0x0000000000002f88                nrf__twi__mem_write
 .text.nrf__twi__mem_read
                0x00000000000030c8      0x140 C:\GNAT\Ada_Drivers_Library\boards\NRF52_DK\obj\zfp_lib_Debug\libada_drivers_library.a(nrf-twi.o)
                0x00000000000030c8                nrf__twi__mem_read
 .text.nrf__uart__uart_deviceIP
                0x0000000000003208       0x34 C:\GNAT\Ada_Drivers_Library\boards\NRF52_DK\obj\zfp_lib_Debug\libada_drivers_library.a(nrf-uart.o)
                0x0000000000003208                nrf__uart__uart_deviceIP
 .text.nrf__uart___size__2
                0x000000000000323c       0x20 C:\GNAT\Ada_Drivers_Library\boards\NRF52_DK\obj\zfp_lib_Debug\libada_drivers_library.a(nrf-uart.o)
                0x000000000000323c                nrf__uart___size__2
 .text.nrf__uart__Oeq
                0x000000000000325c       0x40 C:\GNAT\Ada_Drivers_Library\boards\NRF52_DK\obj\zfp_lib_Debug\libada_drivers_library.a(nrf-uart.o)
                0x000000000000325c                nrf__uart__Oeq
 .text.nrf__uart___assign
                0x000000000000329c       0x3c C:\GNAT\Ada_Drivers_Library\boards\NRF52_DK\obj\zfp_lib_Debug\libada_drivers_library.a(nrf-uart.o)
                0x000000000000329c                nrf__uart___assign
 .text.nrf__uart__data_size
                0x00000000000032d8       0x18 C:\GNAT\Ada_Drivers_Library\boards\NRF52_DK\obj\zfp_lib_Debug\libada_drivers_library.a(nrf-uart.o)
                0x00000000000032d8                nrf__uart__data_size
 .text.nrf__uart__configure
                0x00000000000032f0       0x48 C:\GNAT\Ada_Drivers_Library\boards\NRF52_DK\obj\zfp_lib_Debug\libada_drivers_library.a(nrf-uart.o)
                0x00000000000032f0                nrf__uart__configure
 .text.nrf__uart__enable
                0x0000000000003338       0x6c C:\GNAT\Ada_Drivers_Library\boards\NRF52_DK\obj\zfp_lib_Debug\libada_drivers_library.a(nrf-uart.o)
                0x0000000000003338                nrf__uart__enable
 .text.nrf__uart__disable
                0x00000000000033a4       0x54 C:\GNAT\Ada_Drivers_Library\boards\NRF52_DK\obj\zfp_lib_Debug\libada_drivers_library.a(nrf-uart.o)
                0x00000000000033a4                nrf__uart__disable
 .text.nrf__uart__enable_flow_control
                0x00000000000033f8       0x48 C:\GNAT\Ada_Drivers_Library\boards\NRF52_DK\obj\zfp_lib_Debug\libada_drivers_library.a(nrf-uart.o)
                0x00000000000033f8                nrf__uart__enable_flow_control
 .text.nrf__uart__disable_flow_control
                0x0000000000003440       0x44 C:\GNAT\Ada_Drivers_Library\boards\NRF52_DK\obj\zfp_lib_Debug\libada_drivers_library.a(nrf-uart.o)
                0x0000000000003440                nrf__uart__disable_flow_control
 .text.nrf__uart__transmit
                0x0000000000003484       0xa8 C:\GNAT\Ada_Drivers_Library\boards\NRF52_DK\obj\zfp_lib_Debug\libada_drivers_library.a(nrf-uart.o)
                0x0000000000003484                nrf__uart__transmit
 .text.nrf__uart__receive
                0x000000000000352c       0xa0 C:\GNAT\Ada_Drivers_Library\boards\NRF52_DK\obj\zfp_lib_Debug\libada_drivers_library.a(nrf-uart.o)
                0x000000000000352c                nrf__uart__receive
 .text.nrf__uart__transmit__2
                0x00000000000035cc       0x3c C:\GNAT\Ada_Drivers_Library\boards\NRF52_DK\obj\zfp_lib_Debug\libada_drivers_library.a(nrf-uart.o)
                0x00000000000035cc                nrf__uart__transmit__2
 .text.nrf__uart__receive__2
                0x0000000000003608       0x3c C:\GNAT\Ada_Drivers_Library\boards\NRF52_DK\obj\zfp_lib_Debug\libada_drivers_library.a(nrf-uart.o)
                0x0000000000003608                nrf__uart__receive__2
 .text.nrf52_dk__buttons__initialize
                0x0000000000003644       0x70 C:\GNAT\Ada_Drivers_Library\boards\NRF52_DK\obj\zfp_lib_Debug\libada_drivers_library.a(nrf52_dk-buttons.o)
 .text.nrf52_dk__buttons__tick_handler
                0x00000000000036b4       0xd4 C:\GNAT\Ada_Drivers_Library\boards\NRF52_DK\obj\zfp_lib_Debug\libada_drivers_library.a(nrf52_dk-buttons.o)
 .text.nrf52_dk__buttons___elabb
                0x0000000000003788       0x84 C:\GNAT\Ada_Drivers_Library\boards\NRF52_DK\obj\zfp_lib_Debug\libada_drivers_library.a(nrf52_dk-buttons.o)
                0x0000000000003788                nrf52_dk__buttons___elabb
 .text.nrf52_dk__leds__initialize_leds
                0x000000000000380c       0x58 C:\GNAT\Ada_Drivers_Library\boards\NRF52_DK\obj\zfp_lib_Debug\libada_drivers_library.a(nrf52_dk-leds.o)
                0x000000000000380c                nrf52_dk__leds__initialize_leds
 .text.nrf52_dk__leds__turn_on
                0x0000000000003864       0x14 C:\GNAT\Ada_Drivers_Library\boards\NRF52_DK\obj\zfp_lib_Debug\libada_drivers_library.a(nrf52_dk-leds.o)
                0x0000000000003864                nrf52_dk__leds__turn_on
 .text.nrf52_dk__leds__turn_off
                0x0000000000003878       0x14 C:\GNAT\Ada_Drivers_Library\boards\NRF52_DK\obj\zfp_lib_Debug\libada_drivers_library.a(nrf52_dk-leds.o)
                0x0000000000003878                nrf52_dk__leds__turn_off
 .text.nrf52_dk__leds___elabb
                0x000000000000388c       0x74 C:\GNAT\Ada_Drivers_Library\boards\NRF52_DK\obj\zfp_lib_Debug\libada_drivers_library.a(nrf52_dk-leds.o)
                0x000000000000388c                nrf52_dk__leds___elabb
 .text.nrf52_dk__time__mb_delaysIP
                0x0000000000003900       0x28 C:\GNAT\Ada_Drivers_Library\boards\NRF52_DK\obj\zfp_lib_Debug\libada_drivers_library.a(nrf52_dk-time.o)
                0x0000000000003900                nrf52_dk__time__mb_delaysIP
 .text.nrf52_dk__time___size__2
                0x0000000000003928       0x20 C:\GNAT\Ada_Drivers_Library\boards\NRF52_DK\obj\zfp_lib_Debug\libada_drivers_library.a(nrf52_dk-time.o)
                0x0000000000003928                nrf52_dk__time___size__2
 .text.nrf52_dk__time__Oeq
                0x0000000000003948       0x18 C:\GNAT\Ada_Drivers_Library\boards\NRF52_DK\obj\zfp_lib_Debug\libada_drivers_library.a(nrf52_dk-time.o)
                0x0000000000003948                nrf52_dk__time__Oeq
 .text.nrf52_dk__time___assign
                0x0000000000003960       0x24 C:\GNAT\Ada_Drivers_Library\boards\NRF52_DK\obj\zfp_lib_Debug\libada_drivers_library.a(nrf52_dk-time.o)
                0x0000000000003960                nrf52_dk__time___assign
 .text.nrf52_dk__time__initialize
                0x0000000000003984       0x7c C:\GNAT\Ada_Drivers_Library\boards\NRF52_DK\obj\zfp_lib_Debug\libada_drivers_library.a(nrf52_dk-time.o)
 .text.nrf52_dk__time__update_clock
                0x0000000000003a00       0x24 C:\GNAT\Ada_Drivers_Library\boards\NRF52_DK\obj\zfp_lib_Debug\libada_drivers_library.a(nrf52_dk-time.o)
 .text.nrf52_dk__time__rtc1_irqhandler
                0x0000000000003a24       0x80 C:\GNAT\Ada_Drivers_Library\boards\NRF52_DK\obj\zfp_lib_Debug\libada_drivers_library.a(nrf52_dk-time.o)
 .text.nrf52_dk__time__clock
                0x0000000000003aa4       0x1c C:\GNAT\Ada_Drivers_Library\boards\NRF52_DK\obj\zfp_lib_Debug\libada_drivers_library.a(nrf52_dk-time.o)
                0x0000000000003aa4                nrf52_dk__time__clock
 .text.nrf52_dk__time__delay_ms
                0x0000000000003ac0       0x38 C:\GNAT\Ada_Drivers_Library\boards\NRF52_DK\obj\zfp_lib_Debug\libada_drivers_library.a(nrf52_dk-time.o)
                0x0000000000003ac0                nrf52_dk__time__delay_ms
 .text.nrf52_dk__time__tick_subscriber
                0x0000000000003af8       0x44 C:\GNAT\Ada_Drivers_Library\boards\NRF52_DK\obj\zfp_lib_Debug\libada_drivers_library.a(nrf52_dk-time.o)
                0x0000000000003af8                nrf52_dk__time__tick_subscriber
 .text.nrf52_dk__time__tick_subscribe___postconditions.6360
                0x0000000000003b3c       0x48 C:\GNAT\Ada_Drivers_Library\boards\NRF52_DK\obj\zfp_lib_Debug\libada_drivers_library.a(nrf52_dk-time.o)
 .text.nrf52_dk__time__tick_subscribe
                0x0000000000003b84       0x8c C:\GNAT\Ada_Drivers_Library\boards\NRF52_DK\obj\zfp_lib_Debug\libada_drivers_library.a(nrf52_dk-time.o)
                0x0000000000003b84                nrf52_dk__time__tick_subscribe
 .text.nrf52_dk__time__delay_microseconds__2
                0x0000000000003c10       0x44 C:\GNAT\Ada_Drivers_Library\boards\NRF52_DK\obj\zfp_lib_Debug\libada_drivers_library.a(nrf52_dk-time.o)
                0x0000000000003c10                nrf52_dk__time__delay_microseconds__2
 .text.nrf52_dk__time__delay_milliseconds__2
                0x0000000000003c54       0x34 C:\GNAT\Ada_Drivers_Library\boards\NRF52_DK\obj\zfp_lib_Debug\libada_drivers_library.a(nrf52_dk-time.o)
                0x0000000000003c54                nrf52_dk__time__delay_milliseconds__2
 .text.nrf52_dk__time__delay_seconds__2
                0x0000000000003c88       0x58 C:\GNAT\Ada_Drivers_Library\boards\NRF52_DK\obj\zfp_lib_Debug\libada_drivers_library.a(nrf52_dk-time.o)
                0x0000000000003c88                nrf52_dk__time__delay_seconds__2
 .text.nrf52_dk__time___elabb
                0x0000000000003ce0       0x28 C:\GNAT\Ada_Drivers_Library\boards\NRF52_DK\obj\zfp_lib_Debug\libada_drivers_library.a(nrf52_dk-time.o)
                0x0000000000003ce0                nrf52_dk__time___elabb
 .text.nrf_svd__gpio__pin_cnf_pull_fieldRP
                0x0000000000003d08       0x40 C:\GNAT\Ada_Drivers_Library\boards\NRF52_DK\obj\zfp_lib_Debug\libada_drivers_library.a(nrf_svd-gpio.o)
                0x0000000000003d08                nrf_svd__gpio__pin_cnf_pull_fieldRP
 .text.nrf_svd__twi__errorsrc_registerIP
                0x0000000000003d48       0x4c C:\GNAT\Ada_Drivers_Library\boards\NRF52_DK\obj\zfp_lib_Debug\libada_drivers_library.a(nrf_svd-twi.o)
                0x0000000000003d48                nrf_svd__twi__errorsrc_registerIP
 .text.__gnat_last_chance_handler
                0x0000000000003d94       0x84 C:\gnat\2020-arm-elf\arm-eabi\lib\gnat\zfp-cortex-m4f\adalib\libgnat.a(a-elchha.o)
                0x0000000000003d94                __gnat_last_chance_handler
 .text          0x0000000000003e18       0x20 C:\gnat\2020-arm-elf\arm-eabi\lib\gnat\zfp-cortex-m4f\adalib\libgnat.a(breakpoint_handler-cortexm.o)
                0x0000000000003e18                __gnat_bkpt_trap
 .text.gnat__io__put__2
                0x0000000000003e38       0x44 C:\gnat\2020-arm-elf\arm-eabi\lib\gnat\zfp-cortex-m4f\adalib\libgnat.a(g-io.o)
                0x0000000000003e38                gnat__io__put__2
 .text.gnat__io__new_line
                0x0000000000003e7c       0x14 C:\gnat\2020-arm-elf\arm-eabi\lib\gnat\zfp-cortex-m4f\adalib\libgnat.a(g-io.o)
                0x0000000000003e7c                gnat__io__new_line
 .text.gnat__io__put__3
                0x0000000000003e90       0x20 C:\gnat\2020-arm-elf\arm-eabi\lib\gnat\zfp-cortex-m4f\adalib\libgnat.a(g-io.o)
                0x0000000000003e90                gnat__io__put__3
 .text.gnat__io__put
                0x0000000000003eb0       0x6c C:\gnat\2020-arm-elf\arm-eabi\lib\gnat\zfp-cortex-m4f\adalib\libgnat.a(g-io.o)
                0x0000000000003eb0                gnat__io__put
 .text.gnat__io__put_line
                0x0000000000003f1c       0x10 C:\gnat\2020-arm-elf\arm-eabi\lib\gnat\zfp-cortex-m4f\adalib\libgnat.a(g-io.o)
                0x0000000000003f1c                gnat__io__put_line
 .text.system__assertions__raise_assert_failure
                0x0000000000003f2c       0x68 C:\gnat\2020-arm-elf\arm-eabi\lib\gnat\zfp-cortex-m4f\adalib\libgnat.a(s-assert.o)
                0x0000000000003f2c                system__assertions__raise_assert_failure
 .text._exit    0x0000000000003f94       0x10 C:\gnat\2020-arm-elf\arm-eabi\lib\gnat\zfp-cortex-m4f\adalib\libgnat.a(s-macres.o)
                0x0000000000003f94                _exit
 .text.system__machine_reset__stop
                0x0000000000003fa4        0x8 C:\gnat\2020-arm-elf\arm-eabi\lib\gnat\zfp-cortex-m4f\adalib\libgnat.a(s-macres.o)
                0x0000000000003fa4                system__machine_reset__stop
 .text.memcpy   0x0000000000003fac       0x50 C:\gnat\2020-arm-elf\arm-eabi\lib\gnat\zfp-cortex-m4f\adalib\libgnat.a(s-memcop.o)
                0x0000000000003fac                memcpy
 .text.memset   0x0000000000003ffc       0x50 C:\gnat\2020-arm-elf\arm-eabi\lib\gnat\zfp-cortex-m4f\adalib\libgnat.a(s-memset.o)
                0x0000000000003ffc                memset
 .text.system__secondary_stack__ss_stackIP
                0x000000000000404c        0x4 C:\gnat\2020-arm-elf\arm-eabi\lib\gnat\zfp-cortex-m4f\adalib\libgnat.a(s-secsta.o)
                0x000000000000404c                system__secondary_stack__ss_stackIP
 .text.system__text_io__initialize
                0x0000000000004050        0xc C:\gnat\2020-arm-elf\arm-eabi\lib\gnat\zfp-cortex-m4f\adalib\libgnat.a(s-textio.o)
                0x0000000000004050                system__text_io__initialize
 .text.system__text_io__is_tx_ready
                0x000000000000405c        0x4 C:\gnat\2020-arm-elf\arm-eabi\lib\gnat\zfp-cortex-m4f\adalib\libgnat.a(s-textio.o)
                0x000000000000405c                system__text_io__is_tx_ready
 .text.system__text_io__put
                0x0000000000004060        0x4 C:\gnat\2020-arm-elf\arm-eabi\lib\gnat\zfp-cortex-m4f\adalib\libgnat.a(s-textio.o)
                0x0000000000004060                system__text_io__put
 .text.system__text_io__use_cr_lf_for_new_line
                0x0000000000004064        0x4 C:\gnat\2020-arm-elf\arm-eabi\lib\gnat\zfp-cortex-m4f\adalib\libgnat.a(s-textio.o)
                0x0000000000004064                system__text_io__use_cr_lf_for_new_line
 .text.system__semihosting__put
                0x0000000000004068       0x80 C:\gnat\2020-arm-elf\arm-eabi\lib\gnat\zfp-cortex-m4f\adalib\libgnat.a(s-semiho.o)
                0x0000000000004068                system__semihosting__put
 *(.gnu.warning)

.glue_7         0x00000000000040e8        0x0
 .glue_7        0x00000000000040e8        0x0 linker stubs

.glue_7t        0x00000000000040e8        0x0
 .glue_7t       0x00000000000040e8        0x0 linker stubs

.vfp11_veneer   0x00000000000040e8        0x0
 .vfp11_veneer  0x00000000000040e8        0x0 linker stubs

.v4_bx          0x00000000000040e8        0x0
 .v4_bx         0x00000000000040e8        0x0 linker stubs

.iplt           0x00000000000040e8        0x0
 .iplt          0x00000000000040e8        0x0 main.o

.ARM.extab
 *(.ARM.extab* .gnu.linkonce.armextab.*)
                [!provide]                        PROVIDE (__exidx_start = .)

.ARM.exidx
 *(.ARM.exidx* .gnu.linkonce.armexidx.*)
                [!provide]                        PROVIDE (__exidx_end = .)

.rodata         0x00000000000040e8      0xb2c
 *(.lit)
 *(.rodata .rodata.* .gnu.linkonce.r*)
 .rodata        0x00000000000040e8        0x8 b__main.o
 .rodata.__gnat_ada_main_program_name
                0x00000000000040f0        0xa b__main.o
                0x00000000000040f0                __gnat_ada_main_program_name
 *fill*         0x00000000000040fa        0x2 
 .rodata        0x00000000000040fc       0x12 C:\GNAT\Ada_Drivers_Library\boards\NRF52_DK\obj\zfp_lib_Debug\libada_drivers_library.a(cortex_m-nvic.o)
 *fill*         0x000000000000410e        0x2 
 .rodata        0x0000000000004110        0xe C:\GNAT\Ada_Drivers_Library\boards\NRF52_DK\obj\zfp_lib_Debug\libada_drivers_library.a(nrf-clock.o)
 *fill*         0x000000000000411e        0x2 
 .rodata        0x0000000000004120        0xf C:\GNAT\Ada_Drivers_Library\boards\NRF52_DK\obj\zfp_lib_Debug\libada_drivers_library.a(nrf-events.o)
 *fill*         0x000000000000412f        0x1 
 .rodata        0x0000000000004130       0xc2 C:\GNAT\Ada_Drivers_Library\boards\NRF52_DK\obj\zfp_lib_Debug\libada_drivers_library.a(nrf-gpio.o)
 *fill*         0x00000000000041f2        0x2 
 .rodata.nrf__gpio__gpio_pointE13s
                0x00000000000041f4       0x14 C:\GNAT\Ada_Drivers_Library\boards\NRF52_DK\obj\zfp_lib_Debug\libada_drivers_library.a(nrf-gpio.o)
                0x00000000000041f4                nrf__gpio__gpio_pointE13s
 .rodata.nrf__gpio__gpio_pointB17s
                0x0000000000004208       0x20 C:\GNAT\Ada_Drivers_Library\boards\NRF52_DK\obj\zfp_lib_Debug\libada_drivers_library.a(nrf-gpio.o)
                0x0000000000004208                nrf__gpio__gpio_pointB17s
 .rodata.nrf__gpio__gpio_pointR15s___UNC
                0x0000000000004228       0x24 C:\GNAT\Ada_Drivers_Library\boards\NRF52_DK\obj\zfp_lib_Debug\libada_drivers_library.a(nrf-gpio.o)
                0x0000000000004228                nrf__gpio__gpio_pointR15s___UNC
 .rodata.nrf__gpio__gpio_pointT
                0x000000000000424c       0x38 C:\GNAT\Ada_Drivers_Library\boards\NRF52_DK\obj\zfp_lib_Debug\libada_drivers_library.a(nrf-gpio.o)
                0x000000000000424c                nrf__gpio__gpio_pointT
 .rodata        0x0000000000004284       0x13 C:\GNAT\Ada_Drivers_Library\boards\NRF52_DK\obj\zfp_lib_Debug\libada_drivers_library.a(nrf-interrupts.o)
 *fill*         0x0000000000004297        0x1 
 .rodata        0x0000000000004298        0xc C:\GNAT\Ada_Drivers_Library\boards\NRF52_DK\obj\zfp_lib_Debug\libada_drivers_library.a(nrf-rtc.o)
 .rodata        0x00000000000042a4      0x1cd C:\GNAT\Ada_Drivers_Library\boards\NRF52_DK\obj\zfp_lib_Debug\libada_drivers_library.a(nrf-spi_master.o)
 *fill*         0x0000000000004471        0x3 
 .rodata.nrf__spi_master__spi_masterE26s
                0x0000000000004474       0x1a C:\GNAT\Ada_Drivers_Library\boards\NRF52_DK\obj\zfp_lib_Debug\libada_drivers_library.a(nrf-spi_master.o)
                0x0000000000004474                nrf__spi_master__spi_masterE26s
 *fill*         0x000000000000448e        0x2 
 .rodata.nrf__spi_master__spi_masterB30s
                0x0000000000004490       0x20 C:\GNAT\Ada_Drivers_Library\boards\NRF52_DK\obj\zfp_lib_Debug\libada_drivers_library.a(nrf-spi_master.o)
                0x0000000000004490                nrf__spi_master__spi_masterB30s
 .rodata.nrf__spi_master__spi_masterR28s___UNC
                0x00000000000044b0       0x24 C:\GNAT\Ada_Drivers_Library\boards\NRF52_DK\obj\zfp_lib_Debug\libada_drivers_library.a(nrf-spi_master.o)
                0x00000000000044b0                nrf__spi_master__spi_masterR28s___UNC
 .rodata.nrf__spi_master__spi_masterT
                0x00000000000044d4       0x38 C:\GNAT\Ada_Drivers_Library\boards\NRF52_DK\obj\zfp_lib_Debug\libada_drivers_library.a(nrf-spi_master.o)
                0x00000000000044d4                nrf__spi_master__spi_masterT
 .rodata        0x000000000000450c        0xe C:\GNAT\Ada_Drivers_Library\boards\NRF52_DK\obj\zfp_lib_Debug\libada_drivers_library.a(nrf-tasks.o)
 *fill*         0x000000000000451a        0x2 
 .rodata        0x000000000000451c       0x54 C:\GNAT\Ada_Drivers_Library\boards\NRF52_DK\obj\zfp_lib_Debug\libada_drivers_library.a(nrf-timers.o)
 .rodata.nrf__timers__timerE19s
                0x0000000000004570       0x11 C:\GNAT\Ada_Drivers_Library\boards\NRF52_DK\obj\zfp_lib_Debug\libada_drivers_library.a(nrf-timers.o)
                0x0000000000004570                nrf__timers__timerE19s
 *fill*         0x0000000000004581        0x3 
 .rodata.nrf__timers__timerB23s
                0x0000000000004584       0x1c C:\GNAT\Ada_Drivers_Library\boards\NRF52_DK\obj\zfp_lib_Debug\libada_drivers_library.a(nrf-timers.o)
                0x0000000000004584                nrf__timers__timerB23s
 .rodata.nrf__timers__timerR21s___UNC
                0x00000000000045a0       0x24 C:\GNAT\Ada_Drivers_Library\boards\NRF52_DK\obj\zfp_lib_Debug\libada_drivers_library.a(nrf-timers.o)
                0x00000000000045a0                nrf__timers__timerR21s___UNC
 .rodata.nrf__timers__timerT
                0x00000000000045c4       0x5c C:\GNAT\Ada_Drivers_Library\boards\NRF52_DK\obj\zfp_lib_Debug\libada_drivers_library.a(nrf-timers.o)
                0x00000000000045c4                nrf__timers__timerT
 .rodata        0x0000000000004620       0xd3 C:\GNAT\Ada_Drivers_Library\boards\NRF52_DK\obj\zfp_lib_Debug\libada_drivers_library.a(nrf-twi.o)
 *fill*         0x00000000000046f3        0x1 
 .rodata.nrf__twi__twi_masterE22s
                0x00000000000046f4       0x13 C:\GNAT\Ada_Drivers_Library\boards\NRF52_DK\obj\zfp_lib_Debug\libada_drivers_library.a(nrf-twi.o)
                0x00000000000046f4                nrf__twi__twi_masterE22s
 *fill*         0x0000000000004707        0x1 
 .rodata.nrf__twi__twi_masterB26s
                0x0000000000004708       0x20 C:\GNAT\Ada_Drivers_Library\boards\NRF52_DK\obj\zfp_lib_Debug\libada_drivers_library.a(nrf-twi.o)
                0x0000000000004708                nrf__twi__twi_masterB26s
 .rodata.nrf__twi__twi_masterR24s___UNC
                0x0000000000004728       0x24 C:\GNAT\Ada_Drivers_Library\boards\NRF52_DK\obj\zfp_lib_Debug\libada_drivers_library.a(nrf-twi.o)
                0x0000000000004728                nrf__twi__twi_masterR24s___UNC
 .rodata.nrf__twi__twi_masterT
                0x000000000000474c       0x34 C:\GNAT\Ada_Drivers_Library\boards\NRF52_DK\obj\zfp_lib_Debug\libada_drivers_library.a(nrf-twi.o)
                0x000000000000474c                nrf__twi__twi_masterT
 .rodata        0x0000000000004780       0xf6 C:\GNAT\Ada_Drivers_Library\boards\NRF52_DK\obj\zfp_lib_Debug\libada_drivers_library.a(nrf-uart.o)
 *fill*         0x0000000000004876        0x2 
 .rodata.nrf__uart__uart_deviceE44s
                0x0000000000004878       0x15 C:\GNAT\Ada_Drivers_Library\boards\NRF52_DK\obj\zfp_lib_Debug\libada_drivers_library.a(nrf-uart.o)
                0x0000000000004878                nrf__uart__uart_deviceE44s
 *fill*         0x000000000000488d        0x3 
 .rodata.nrf__uart__uart_deviceB48s
                0x0000000000004890       0x20 C:\GNAT\Ada_Drivers_Library\boards\NRF52_DK\obj\zfp_lib_Debug\libada_drivers_library.a(nrf-uart.o)
                0x0000000000004890                nrf__uart__uart_deviceB48s
 .rodata.nrf__uart__uart_deviceR46s___UNC
                0x00000000000048b0       0x24 C:\GNAT\Ada_Drivers_Library\boards\NRF52_DK\obj\zfp_lib_Debug\libada_drivers_library.a(nrf-uart.o)
                0x00000000000048b0                nrf__uart__uart_deviceR46s___UNC
 .rodata.nrf__uart__uart_deviceT
                0x00000000000048d4       0x38 C:\GNAT\Ada_Drivers_Library\boards\NRF52_DK\obj\zfp_lib_Debug\libada_drivers_library.a(nrf-uart.o)
                0x00000000000048d4                nrf__uart__uart_deviceT
 .rodata        0x000000000000490c       0x15 C:\GNAT\Ada_Drivers_Library\boards\NRF52_DK\obj\zfp_lib_Debug\libada_drivers_library.a(nrf52_dk-buttons.o)
 *fill*         0x0000000000004921        0x3 
 .rodata        0x0000000000004924       0xe1 C:\GNAT\Ada_Drivers_Library\boards\NRF52_DK\obj\zfp_lib_Debug\libada_drivers_library.a(nrf52_dk-time.o)
 *fill*         0x0000000000004a05        0x3 
 .rodata.nrf52_dk__time__mb_delaysE17s
                0x0000000000004a08       0x18 C:\GNAT\Ada_Drivers_Library\boards\NRF52_DK\obj\zfp_lib_Debug\libada_drivers_library.a(nrf52_dk-time.o)
                0x0000000000004a08                nrf52_dk__time__mb_delaysE17s
 .rodata.nrf52_dk__time__mb_delaysB21s
                0x0000000000004a20       0x20 C:\GNAT\Ada_Drivers_Library\boards\NRF52_DK\obj\zfp_lib_Debug\libada_drivers_library.a(nrf52_dk-time.o)
                0x0000000000004a20                nrf52_dk__time__mb_delaysB21s
 .rodata.nrf52_dk__time__mb_delaysR19s___UNC
                0x0000000000004a40       0x24 C:\GNAT\Ada_Drivers_Library\boards\NRF52_DK\obj\zfp_lib_Debug\libada_drivers_library.a(nrf52_dk-time.o)
                0x0000000000004a40                nrf52_dk__time__mb_delaysR19s___UNC
 .rodata.nrf52_dk__time__mb_delaysT
                0x0000000000004a64       0x1c C:\GNAT\Ada_Drivers_Library\boards\NRF52_DK\obj\zfp_lib_Debug\libada_drivers_library.a(nrf52_dk-time.o)
                0x0000000000004a64                nrf52_dk__time__mb_delaysT
 .rodata.hal__gpio__gpio_pointE5s
                0x0000000000004a80       0x14 C:\GNAT\Ada_Drivers_Library\boards\NRF52_DK\obj\zfp_lib_Debug\libada_drivers_library.a(hal-gpio.o)
                0x0000000000004a80                hal__gpio__gpio_pointE5s
 .rodata.hal__gpio__gpio_pointB9s
                0x0000000000004a94       0x1c C:\GNAT\Ada_Drivers_Library\boards\NRF52_DK\obj\zfp_lib_Debug\libada_drivers_library.a(hal-gpio.o)
                0x0000000000004a94                hal__gpio__gpio_pointB9s
 .rodata.hal__gpio__gpio_pointT
                0x0000000000004ab0        0x8 C:\GNAT\Ada_Drivers_Library\boards\NRF52_DK\obj\zfp_lib_Debug\libada_drivers_library.a(hal-gpio.o)
                0x0000000000004ab0                hal__gpio__gpio_pointT
 .rodata.hal__i2c__i2c_portE2s
                0x0000000000004ab8       0x11 C:\GNAT\Ada_Drivers_Library\boards\NRF52_DK\obj\zfp_lib_Debug\libada_drivers_library.a(hal-i2c.o)
                0x0000000000004ab8                hal__i2c__i2c_portE2s
 *fill*         0x0000000000004ac9        0x3 
 .rodata.hal__i2c__i2c_portB6s
                0x0000000000004acc       0x1c C:\GNAT\Ada_Drivers_Library\boards\NRF52_DK\obj\zfp_lib_Debug\libada_drivers_library.a(hal-i2c.o)
                0x0000000000004acc                hal__i2c__i2c_portB6s
 .rodata.hal__i2c__i2c_portT
                0x0000000000004ae8        0x8 C:\GNAT\Ada_Drivers_Library\boards\NRF52_DK\obj\zfp_lib_Debug\libada_drivers_library.a(hal-i2c.o)
                0x0000000000004ae8                hal__i2c__i2c_portT
 .rodata.hal__spi__spi_portE10s
                0x0000000000004af0       0x11 C:\GNAT\Ada_Drivers_Library\boards\NRF52_DK\obj\zfp_lib_Debug\libada_drivers_library.a(hal-spi.o)
                0x0000000000004af0                hal__spi__spi_portE10s
 *fill*         0x0000000000004b01        0x3 
 .rodata.hal__spi__spi_portB14s
                0x0000000000004b04       0x1c C:\GNAT\Ada_Drivers_Library\boards\NRF52_DK\obj\zfp_lib_Debug\libada_drivers_library.a(hal-spi.o)
                0x0000000000004b04                hal__spi__spi_portB14s
 .rodata.hal__spi__spi_portT
                0x0000000000004b20        0x8 C:\GNAT\Ada_Drivers_Library\boards\NRF52_DK\obj\zfp_lib_Debug\libada_drivers_library.a(hal-spi.o)
                0x0000000000004b20                hal__spi__spi_portT
 .rodata.hal__time__delaysE2s
                0x0000000000004b28       0x10 C:\GNAT\Ada_Drivers_Library\boards\NRF52_DK\obj\zfp_lib_Debug\libada_drivers_library.a(hal-time.o)
                0x0000000000004b28                hal__time__delaysE2s
 .rodata.hal__time__delaysB6s
                0x0000000000004b38       0x1c C:\GNAT\Ada_Drivers_Library\boards\NRF52_DK\obj\zfp_lib_Debug\libada_drivers_library.a(hal-time.o)
                0x0000000000004b38                hal__time__delaysB6s
 .rodata.hal__time__delaysT
                0x0000000000004b54        0x8 C:\GNAT\Ada_Drivers_Library\boards\NRF52_DK\obj\zfp_lib_Debug\libada_drivers_library.a(hal-time.o)
                0x0000000000004b54                hal__time__delaysT
 .rodata.hal__uart__uart_portE10s
                0x0000000000004b5c       0x13 C:\GNAT\Ada_Drivers_Library\boards\NRF52_DK\obj\zfp_lib_Debug\libada_drivers_library.a(hal-uart.o)
                0x0000000000004b5c                hal__uart__uart_portE10s
 *fill*         0x0000000000004b6f        0x1 
 .rodata.hal__uart__uart_portB14s
                0x0000000000004b70       0x1c C:\GNAT\Ada_Drivers_Library\boards\NRF52_DK\obj\zfp_lib_Debug\libada_drivers_library.a(hal-uart.o)
                0x0000000000004b70                hal__uart__uart_portB14s
 .rodata.hal__uart__uart_portT
                0x0000000000004b8c        0x8 C:\GNAT\Ada_Drivers_Library\boards\NRF52_DK\obj\zfp_lib_Debug\libada_drivers_library.a(hal-uart.o)
                0x0000000000004b8c                hal__uart__uart_portT
 .rodata.__gnat_last_chance_handler.str1.4
                0x0000000000004b94       0x5a C:\gnat\2020-arm-elf\arm-eabi\lib\gnat\zfp-cortex-m4f\adalib\libgnat.a(a-elchha.o)
 *fill*         0x0000000000004bee        0x2 
 .rodata        0x0000000000004bf0       0x18 C:\gnat\2020-arm-elf\arm-eabi\lib\gnat\zfp-cortex-m4f\adalib\libgnat.a(a-elchha.o)
 .rodata.ada__exceptions__empty_c_string___UNC
                0x0000000000004c08        0xc C:\gnat\2020-arm-elf\arm-eabi\lib\gnat\zfp-cortex-m4f\adalib\libgnat.a(a-except.o)
                0x0000000000004c08                ada__exceptions__empty_c_string___UNC
                0x0000000000004c14                . = ALIGN (0x4)
                0x0000000000004c14                __rom_end = .
                0x0000000000004c14                __data_load = LOADADDR (.data)

.rel.dyn        0x0000000000004c14        0x0
 .rel.iplt      0x0000000000004c14        0x0 main.o

.data           0x0000000020000000       0x34 load address 0x0000000000004c14
                0x0000000020000000                __data_start = .
 *(.data .data.* .gnu.linkonce.d*)
 .data.cortex_m__nvic_E
                0x0000000020000000        0x2 C:\GNAT\Ada_Drivers_Library\boards\NRF52_DK\obj\zfp_lib_Debug\libada_drivers_library.a(cortex_m-nvic.o)
                0x0000000020000000                cortex_m__nvic_E
 .data.memory_barriers_E
                0x0000000020000002        0x2 C:\GNAT\Ada_Drivers_Library\boards\NRF52_DK\obj\zfp_lib_Debug\libada_drivers_library.a(memory_barriers.o)
                0x0000000020000002                memory_barriers_E
 .data.nrf__clock_E
                0x0000000020000004        0x2 C:\GNAT\Ada_Drivers_Library\boards\NRF52_DK\obj\zfp_lib_Debug\libada_drivers_library.a(nrf-clock.o)
                0x0000000020000004                nrf__clock_E
 .data.nrf__device_E
                0x0000000020000006        0x2 C:\GNAT\Ada_Drivers_Library\boards\NRF52_DK\obj\zfp_lib_Debug\libada_drivers_library.a(nrf-device.o)
                0x0000000020000006                nrf__device_E
 .data.nrf__events_E
                0x0000000020000008        0x2 C:\GNAT\Ada_Drivers_Library\boards\NRF52_DK\obj\zfp_lib_Debug\libada_drivers_library.a(nrf-events.o)
                0x0000000020000008                nrf__events_E
 .data.nrf__gpio_E
                0x000000002000000a        0x2 C:\GNAT\Ada_Drivers_Library\boards\NRF52_DK\obj\zfp_lib_Debug\libada_drivers_library.a(nrf-gpio.o)
                0x000000002000000a                nrf__gpio_E
 .data.nrf__interrupts_E
                0x000000002000000c        0x2 C:\GNAT\Ada_Drivers_Library\boards\NRF52_DK\obj\zfp_lib_Debug\libada_drivers_library.a(nrf-interrupts.o)
                0x000000002000000c                nrf__interrupts_E
 .data.nrf__rtc_E
                0x000000002000000e        0x2 C:\GNAT\Ada_Drivers_Library\boards\NRF52_DK\obj\zfp_lib_Debug\libada_drivers_library.a(nrf-rtc.o)
                0x000000002000000e                nrf__rtc_E
 .data.nrf__spi_master_E
                0x0000000020000010        0x2 C:\GNAT\Ada_Drivers_Library\boards\NRF52_DK\obj\zfp_lib_Debug\libada_drivers_library.a(nrf-spi_master.o)
                0x0000000020000010                nrf__spi_master_E
 .data.nrf__tasks_E
                0x0000000020000012        0x2 C:\GNAT\Ada_Drivers_Library\boards\NRF52_DK\obj\zfp_lib_Debug\libada_drivers_library.a(nrf-tasks.o)
                0x0000000020000012                nrf__tasks_E
 .data.nrf__timers_E
                0x0000000020000014        0x2 C:\GNAT\Ada_Drivers_Library\boards\NRF52_DK\obj\zfp_lib_Debug\libada_drivers_library.a(nrf-timers.o)
                0x0000000020000014                nrf__timers_E
 .data.nrf__twi_E
                0x0000000020000016        0x2 C:\GNAT\Ada_Drivers_Library\boards\NRF52_DK\obj\zfp_lib_Debug\libada_drivers_library.a(nrf-twi.o)
                0x0000000020000016                nrf__twi_E
 .data.nrf__uart_E
                0x0000000020000018        0x2 C:\GNAT\Ada_Drivers_Library\boards\NRF52_DK\obj\zfp_lib_Debug\libada_drivers_library.a(nrf-uart.o)
                0x0000000020000018                nrf__uart_E
 .data.nrf52_dk__buttons_E
                0x000000002000001a        0x2 C:\GNAT\Ada_Drivers_Library\boards\NRF52_DK\obj\zfp_lib_Debug\libada_drivers_library.a(nrf52_dk-buttons.o)
                0x000000002000001a                nrf52_dk__buttons_E
 .data.nrf52_dk__buttons__states
                0x000000002000001c        0x4 C:\GNAT\Ada_Drivers_Library\boards\NRF52_DK\obj\zfp_lib_Debug\libada_drivers_library.a(nrf52_dk-buttons.o)
 .data.nrf52_dk__leds_E
                0x0000000020000020        0x2 C:\GNAT\Ada_Drivers_Library\boards\NRF52_DK\obj\zfp_lib_Debug\libada_drivers_library.a(nrf52_dk-leds.o)
                0x0000000020000020                nrf52_dk__leds_E
 .data.nrf52_dk__time_E
                0x0000000020000022        0x2 C:\GNAT\Ada_Drivers_Library\boards\NRF52_DK\obj\zfp_lib_Debug\libada_drivers_library.a(nrf52_dk-time.o)
                0x0000000020000022                nrf52_dk__time_E
 *fill*         0x0000000020000024        0x4 
 .data.nrf52_dk__time__clock_ms
                0x0000000020000028        0x8 C:\GNAT\Ada_Drivers_Library\boards\NRF52_DK\obj\zfp_lib_Debug\libada_drivers_library.a(nrf52_dk-time.o)
 .data.system__text_io__initialized
                0x0000000020000030        0x1 C:\gnat\2020-arm-elf\arm-eabi\lib\gnat\zfp-cortex-m4f\adalib\libgnat.a(s-textio.o)
                0x0000000020000030                system__text_io__initialized
 *fill*         0x0000000020000031        0x1 
 .data.system__semihosting__buffer_index
                0x0000000020000032        0x2 C:\gnat\2020-arm-elf\arm-eabi\lib\gnat\zfp-cortex-m4f\adalib\libgnat.a(s-semiho.o)
                0x0000000020000034                . = ALIGN (0x4)
                0x0000000020000034                __data_end = .
                0x000000000000000d                __data_words = ((__data_end - __data_start) >> 0x2)

.igot.plt       0x0000000020000034        0x0 load address 0x0000000000004c48
 .igot.plt      0x0000000020000034        0x0 main.o

.bss            0x0000000020000038      0xd28 load address 0x0000000000004c48
                0x0000000020000038                . = ALIGN (0x8)
                0x0000000020000038                __bss_start = .
 *(.bss .bss.*)
 .bss.ada_main__sec_default_sized_stacks
                0x0000000020000038      0x210 b__main.o
 .bss.nrf__device__p00
                0x0000000020000248        0x8 C:\GNAT\Ada_Drivers_Library\boards\NRF52_DK\obj\zfp_lib_Debug\libada_drivers_library.a(nrf-device.o)
                0x0000000020000248                nrf__device__p00
 .bss.nrf__device__p01
                0x0000000020000250        0x8 C:\GNAT\Ada_Drivers_Library\boards\NRF52_DK\obj\zfp_lib_Debug\libada_drivers_library.a(nrf-device.o)
                0x0000000020000250                nrf__device__p01
 .bss.nrf__device__p02
                0x0000000020000258        0x8 C:\GNAT\Ada_Drivers_Library\boards\NRF52_DK\obj\zfp_lib_Debug\libada_drivers_library.a(nrf-device.o)
                0x0000000020000258                nrf__device__p02
 .bss.nrf__device__p03
                0x0000000020000260        0x8 C:\GNAT\Ada_Drivers_Library\boards\NRF52_DK\obj\zfp_lib_Debug\libada_drivers_library.a(nrf-device.o)
                0x0000000020000260                nrf__device__p03
 .bss.nrf__device__p04
                0x0000000020000268        0x8 C:\GNAT\Ada_Drivers_Library\boards\NRF52_DK\obj\zfp_lib_Debug\libada_drivers_library.a(nrf-device.o)
                0x0000000020000268                nrf__device__p04
 .bss.nrf__device__p05
                0x0000000020000270        0x8 C:\GNAT\Ada_Drivers_Library\boards\NRF52_DK\obj\zfp_lib_Debug\libada_drivers_library.a(nrf-device.o)
                0x0000000020000270                nrf__device__p05
 .bss.nrf__device__p06
                0x0000000020000278        0x8 C:\GNAT\Ada_Drivers_Library\boards\NRF52_DK\obj\zfp_lib_Debug\libada_drivers_library.a(nrf-device.o)
                0x0000000020000278                nrf__device__p06
 .bss.nrf__device__p07
                0x0000000020000280        0x8 C:\GNAT\Ada_Drivers_Library\boards\NRF52_DK\obj\zfp_lib_Debug\libada_drivers_library.a(nrf-device.o)
                0x0000000020000280                nrf__device__p07
 .bss.nrf__device__p08
                0x0000000020000288        0x8 C:\GNAT\Ada_Drivers_Library\boards\NRF52_DK\obj\zfp_lib_Debug\libada_drivers_library.a(nrf-device.o)
                0x0000000020000288                nrf__device__p08
 .bss.nrf__device__p09
                0x0000000020000290        0x8 C:\GNAT\Ada_Drivers_Library\boards\NRF52_DK\obj\zfp_lib_Debug\libada_drivers_library.a(nrf-device.o)
                0x0000000020000290                nrf__device__p09
 .bss.nrf__device__p10
                0x0000000020000298        0x8 C:\GNAT\Ada_Drivers_Library\boards\NRF52_DK\obj\zfp_lib_Debug\libada_drivers_library.a(nrf-device.o)
                0x0000000020000298                nrf__device__p10
 .bss.nrf__device__p11
                0x00000000200002a0        0x8 C:\GNAT\Ada_Drivers_Library\boards\NRF52_DK\obj\zfp_lib_Debug\libada_drivers_library.a(nrf-device.o)
                0x00000000200002a0                nrf__device__p11
 .bss.nrf__device__p12
                0x00000000200002a8        0x8 C:\GNAT\Ada_Drivers_Library\boards\NRF52_DK\obj\zfp_lib_Debug\libada_drivers_library.a(nrf-device.o)
                0x00000000200002a8                nrf__device__p12
 .bss.nrf__device__p13
                0x00000000200002b0        0x8 C:\GNAT\Ada_Drivers_Library\boards\NRF52_DK\obj\zfp_lib_Debug\libada_drivers_library.a(nrf-device.o)
                0x00000000200002b0                nrf__device__p13
 .bss.nrf__device__p14
                0x00000000200002b8        0x8 C:\GNAT\Ada_Drivers_Library\boards\NRF52_DK\obj\zfp_lib_Debug\libada_drivers_library.a(nrf-device.o)
                0x00000000200002b8                nrf__device__p14
 .bss.nrf__device__p15
                0x00000000200002c0        0x8 C:\GNAT\Ada_Drivers_Library\boards\NRF52_DK\obj\zfp_lib_Debug\libada_drivers_library.a(nrf-device.o)
                0x00000000200002c0                nrf__device__p15
 .bss.nrf__device__p16
                0x00000000200002c8        0x8 C:\GNAT\Ada_Drivers_Library\boards\NRF52_DK\obj\zfp_lib_Debug\libada_drivers_library.a(nrf-device.o)
                0x00000000200002c8                nrf__device__p16
 .bss.nrf__device__p17
                0x00000000200002d0        0x8 C:\GNAT\Ada_Drivers_Library\boards\NRF52_DK\obj\zfp_lib_Debug\libada_drivers_library.a(nrf-device.o)
                0x00000000200002d0                nrf__device__p17
 .bss.nrf__device__p18
                0x00000000200002d8        0x8 C:\GNAT\Ada_Drivers_Library\boards\NRF52_DK\obj\zfp_lib_Debug\libada_drivers_library.a(nrf-device.o)
                0x00000000200002d8                nrf__device__p18
 .bss.nrf__device__p19
                0x00000000200002e0        0x8 C:\GNAT\Ada_Drivers_Library\boards\NRF52_DK\obj\zfp_lib_Debug\libada_drivers_library.a(nrf-device.o)
                0x00000000200002e0                nrf__device__p19
 .bss.nrf__device__p20
                0x00000000200002e8        0x8 C:\GNAT\Ada_Drivers_Library\boards\NRF52_DK\obj\zfp_lib_Debug\libada_drivers_library.a(nrf-device.o)
                0x00000000200002e8                nrf__device__p20
 .bss.nrf__device__p21
                0x00000000200002f0        0x8 C:\GNAT\Ada_Drivers_Library\boards\NRF52_DK\obj\zfp_lib_Debug\libada_drivers_library.a(nrf-device.o)
                0x00000000200002f0                nrf__device__p21
 .bss.nrf__device__p22
                0x00000000200002f8        0x8 C:\GNAT\Ada_Drivers_Library\boards\NRF52_DK\obj\zfp_lib_Debug\libada_drivers_library.a(nrf-device.o)
                0x00000000200002f8                nrf__device__p22
 .bss.nrf__device__p23
                0x0000000020000300        0x8 C:\GNAT\Ada_Drivers_Library\boards\NRF52_DK\obj\zfp_lib_Debug\libada_drivers_library.a(nrf-device.o)
                0x0000000020000300                nrf__device__p23
 .bss.nrf__device__p24
                0x0000000020000308        0x8 C:\GNAT\Ada_Drivers_Library\boards\NRF52_DK\obj\zfp_lib_Debug\libada_drivers_library.a(nrf-device.o)
                0x0000000020000308                nrf__device__p24
 .bss.nrf__device__p25
                0x0000000020000310        0x8 C:\GNAT\Ada_Drivers_Library\boards\NRF52_DK\obj\zfp_lib_Debug\libada_drivers_library.a(nrf-device.o)
                0x0000000020000310                nrf__device__p25
 .bss.nrf__device__p26
                0x0000000020000318        0x8 C:\GNAT\Ada_Drivers_Library\boards\NRF52_DK\obj\zfp_lib_Debug\libada_drivers_library.a(nrf-device.o)
                0x0000000020000318                nrf__device__p26
 .bss.nrf__device__p27
                0x0000000020000320        0x8 C:\GNAT\Ada_Drivers_Library\boards\NRF52_DK\obj\zfp_lib_Debug\libada_drivers_library.a(nrf-device.o)
                0x0000000020000320                nrf__device__p27
 .bss.nrf__device__p28
                0x0000000020000328        0x8 C:\GNAT\Ada_Drivers_Library\boards\NRF52_DK\obj\zfp_lib_Debug\libada_drivers_library.a(nrf-device.o)
                0x0000000020000328                nrf__device__p28
 .bss.nrf__device__p29
                0x0000000020000330        0x8 C:\GNAT\Ada_Drivers_Library\boards\NRF52_DK\obj\zfp_lib_Debug\libada_drivers_library.a(nrf-device.o)
                0x0000000020000330                nrf__device__p29
 .bss.nrf__device__p30
                0x0000000020000338        0x8 C:\GNAT\Ada_Drivers_Library\boards\NRF52_DK\obj\zfp_lib_Debug\libada_drivers_library.a(nrf-device.o)
                0x0000000020000338                nrf__device__p30
 .bss.nrf__device__p31
                0x0000000020000340        0x8 C:\GNAT\Ada_Drivers_Library\boards\NRF52_DK\obj\zfp_lib_Debug\libada_drivers_library.a(nrf-device.o)
                0x0000000020000340                nrf__device__p31
 .bss.nrf__device__rtc_0
                0x0000000020000348        0x4 C:\GNAT\Ada_Drivers_Library\boards\NRF52_DK\obj\zfp_lib_Debug\libada_drivers_library.a(nrf-device.o)
                0x0000000020000348                nrf__device__rtc_0
 .bss.nrf__device__rtc_1
                0x000000002000034c        0x4 C:\GNAT\Ada_Drivers_Library\boards\NRF52_DK\obj\zfp_lib_Debug\libada_drivers_library.a(nrf-device.o)
                0x000000002000034c                nrf__device__rtc_1
 .bss.nrf__device__rtc_2
                0x0000000020000350        0x4 C:\GNAT\Ada_Drivers_Library\boards\NRF52_DK\obj\zfp_lib_Debug\libada_drivers_library.a(nrf-device.o)
                0x0000000020000350                nrf__device__rtc_2
 .bss.nrf__device__twi_0
                0x0000000020000354        0xc C:\GNAT\Ada_Drivers_Library\boards\NRF52_DK\obj\zfp_lib_Debug\libada_drivers_library.a(nrf-device.o)
                0x0000000020000354                nrf__device__twi_0
 .bss.nrf__device__twi_1
                0x0000000020000360        0xc C:\GNAT\Ada_Drivers_Library\boards\NRF52_DK\obj\zfp_lib_Debug\libada_drivers_library.a(nrf-device.o)
                0x0000000020000360                nrf__device__twi_1
 .bss.nrf__device__spi_master_0
                0x000000002000036c        0x8 C:\GNAT\Ada_Drivers_Library\boards\NRF52_DK\obj\zfp_lib_Debug\libada_drivers_library.a(nrf-device.o)
                0x000000002000036c                nrf__device__spi_master_0
 .bss.nrf__device__spi_master_1
                0x0000000020000374        0x8 C:\GNAT\Ada_Drivers_Library\boards\NRF52_DK\obj\zfp_lib_Debug\libada_drivers_library.a(nrf-device.o)
                0x0000000020000374                nrf__device__spi_master_1
 .bss.nrf__device__spi_master_2
                0x000000002000037c        0x8 C:\GNAT\Ada_Drivers_Library\boards\NRF52_DK\obj\zfp_lib_Debug\libada_drivers_library.a(nrf-device.o)
                0x000000002000037c                nrf__device__spi_master_2
 .bss.nrf__device__timer_0
                0x0000000020000384        0x8 C:\GNAT\Ada_Drivers_Library\boards\NRF52_DK\obj\zfp_lib_Debug\libada_drivers_library.a(nrf-device.o)
                0x0000000020000384                nrf__device__timer_0
 .bss.nrf__device__timer_1
                0x000000002000038c        0x8 C:\GNAT\Ada_Drivers_Library\boards\NRF52_DK\obj\zfp_lib_Debug\libada_drivers_library.a(nrf-device.o)
                0x000000002000038c                nrf__device__timer_1
 .bss.nrf__device__timer_2
                0x0000000020000394        0x8 C:\GNAT\Ada_Drivers_Library\boards\NRF52_DK\obj\zfp_lib_Debug\libada_drivers_library.a(nrf-device.o)
                0x0000000020000394                nrf__device__timer_2
 .bss.nrf__device__timer_3
                0x000000002000039c        0x8 C:\GNAT\Ada_Drivers_Library\boards\NRF52_DK\obj\zfp_lib_Debug\libada_drivers_library.a(nrf-device.o)
                0x000000002000039c                nrf__device__timer_3
 .bss.nrf__device__timer_4
                0x00000000200003a4        0x8 C:\GNAT\Ada_Drivers_Library\boards\NRF52_DK\obj\zfp_lib_Debug\libada_drivers_library.a(nrf-device.o)
                0x00000000200003a4                nrf__device__timer_4
 .bss.nrf__device__uart_0
                0x00000000200003ac        0xc C:\GNAT\Ada_Drivers_Library\boards\NRF52_DK\obj\zfp_lib_Debug\libada_drivers_library.a(nrf-device.o)
                0x00000000200003ac                nrf__device__uart_0
 .bss.nrf__device__fe0_is_six
                0x00000000200003b8        0x1 C:\GNAT\Ada_Drivers_Library\boards\NRF52_DK\obj\zfp_lib_Debug\libada_drivers_library.a(nrf-device.o)
 .bss.nrf__device__fe4_is_zero
                0x00000000200003b9        0x1 C:\GNAT\Ada_Drivers_Library\boards\NRF52_DK\obj\zfp_lib_Debug\libada_drivers_library.a(nrf-device.o)
 *fill*         0x00000000200003ba        0x2 
 .bss.nrf__interrupts__handlers
                0x00000000200003bc       0x80 C:\GNAT\Ada_Drivers_Library\boards\NRF52_DK\obj\zfp_lib_Debug\libada_drivers_library.a(nrf-interrupts.o)
 .bss.nrf52_dk__buttons__points
                0x000000002000043c       0x20 C:\GNAT\Ada_Drivers_Library\boards\NRF52_DK\obj\zfp_lib_Debug\libada_drivers_library.a(nrf52_dk-buttons.o)
 .bss.nrf52_dk__buttons__subscribers
                0x000000002000045c       0x28 C:\GNAT\Ada_Drivers_Library\boards\NRF52_DK\obj\zfp_lib_Debug\libada_drivers_library.a(nrf52_dk-buttons.o)
 .bss.nrf52_dk__leds__leds
                0x0000000020000484       0x20 C:\GNAT\Ada_Drivers_Library\boards\NRF52_DK\obj\zfp_lib_Debug\libada_drivers_library.a(nrf52_dk-leds.o)
 .bss.nrf52_dk__time__subscribers
                0x00000000200004a4       0x28 C:\GNAT\Ada_Drivers_Library\boards\NRF52_DK\obj\zfp_lib_Debug\libada_drivers_library.a(nrf52_dk-time.o)
 .bss.nrf52_dk__time__delay_instance
                0x00000000200004cc        0x4 C:\GNAT\Ada_Drivers_Library\boards\NRF52_DK\obj\zfp_lib_Debug\libada_drivers_library.a(nrf52_dk-time.o)
 .bss.__gnat_binder_ss_count
                0x00000000200004d0        0x4 C:\gnat\2020-arm-elf\arm-eabi\lib\gnat\zfp-cortex-m4f\adalib\libgnat.a(s-secsta.o)
                0x00000000200004d0                __gnat_binder_ss_count
 .bss.__gnat_default_ss_pool
                0x00000000200004d4        0x4 C:\gnat\2020-arm-elf\arm-eabi\lib\gnat\zfp-cortex-m4f\adalib\libgnat.a(s-secsta.o)
                0x00000000200004d4                __gnat_default_ss_pool
 .bss.__gnat_default_ss_size
                0x00000000200004d8        0x4 C:\gnat\2020-arm-elf\arm-eabi\lib\gnat\zfp-cortex-m4f\adalib\libgnat.a(s-secsta.o)
                0x00000000200004d8                __gnat_default_ss_size
 .bss.system__semihosting__buffer
                0x00000000200004dc       0x80 C:\gnat\2020-arm-elf\arm-eabi\lib\gnat\zfp-cortex-m4f\adalib\libgnat.a(s-semiho.o)
 *(COMMON)
                0x0000000020000560                . = ALIGN (0x8)
 *fill*         0x000000002000055c        0x4 
                0x0000000020000560                __bss_end = .
                0x0000000020000560                __interrupt_stack_start = .
 *(.interrupt_stacks)
                0x0000000020000560                . = ALIGN (0x8)
                0x0000000020000560                __interrupt_stack_end = .
                0x0000000020000560                __stack_start = .
                0x0000000020000d60                . = (. + DEFINED (__stack_size)?__stack_size:_DEFAULT_STACK_SIZE)
 *fill*         0x0000000020000560      0x800 
                0x0000000020000d60                . = ALIGN (0x8)
                0x0000000020000d60                __stack_end = .
                0x0000000020000d60                _end = .
                0x0000000020000d60                __heap_start = .
                0x0000000020010000                __heap_end = (ORIGIN (ram) + LENGTH (ram))
                0x000000000000014a                __bss_words = ((__bss_end - __bss_start) >> 0x2)

.debug
 *(.debug)

.line
 *(.line)

.debug_srcinfo
 *(.debug_srcinfo)

.debug_sfnames
 *(.debug_sfnames)

.debug_aranges  0x0000000000000000      0x768
 *(.debug_aranges)
 .debug_aranges
                0x0000000000000000       0x20 main.o
 .debug_aranges
                0x0000000000000020       0x30 b__main.o
 .debug_aranges
                0x0000000000000050       0x80 C:\GNAT\Ada_Drivers_Library\boards\NRF52_DK\obj\zfp_lib_Debug\libada_drivers_library.a(cortex_m-nvic.o)
 .debug_aranges
                0x00000000000000d0       0x20 C:\GNAT\Ada_Drivers_Library\boards\NRF52_DK\obj\zfp_lib_Debug\libada_drivers_library.a(memory_barriers.o)
 .debug_aranges
                0x00000000000000f0       0x70 C:\GNAT\Ada_Drivers_Library\boards\NRF52_DK\obj\zfp_lib_Debug\libada_drivers_library.a(nrf-clock.o)
 .debug_aranges
                0x0000000000000160       0x80 C:\GNAT\Ada_Drivers_Library\boards\NRF52_DK\obj\zfp_lib_Debug\libada_drivers_library.a(nrf-device.o)
 .debug_aranges
                0x00000000000001e0       0x48 C:\GNAT\Ada_Drivers_Library\boards\NRF52_DK\obj\zfp_lib_Debug\libada_drivers_library.a(nrf-events.o)
 .debug_aranges
                0x0000000000000228       0x68 C:\GNAT\Ada_Drivers_Library\boards\NRF52_DK\obj\zfp_lib_Debug\libada_drivers_library.a(nrf-gpio.o)
 .debug_aranges
                0x0000000000000290       0x50 C:\GNAT\Ada_Drivers_Library\boards\NRF52_DK\obj\zfp_lib_Debug\libada_drivers_library.a(nrf-interrupts.o)
 .debug_aranges
                0x00000000000002e0       0x60 C:\GNAT\Ada_Drivers_Library\boards\NRF52_DK\obj\zfp_lib_Debug\libada_drivers_library.a(nrf-rtc.o)
 .debug_aranges
                0x0000000000000340       0x78 C:\GNAT\Ada_Drivers_Library\boards\NRF52_DK\obj\zfp_lib_Debug\libada_drivers_library.a(nrf-spi_master.o)
 .debug_aranges
                0x00000000000003b8       0x30 C:\GNAT\Ada_Drivers_Library\boards\NRF52_DK\obj\zfp_lib_Debug\libada_drivers_library.a(nrf-tasks.o)
 .debug_aranges
                0x00000000000003e8       0xb8 C:\GNAT\Ada_Drivers_Library\boards\NRF52_DK\obj\zfp_lib_Debug\libada_drivers_library.a(nrf-timers.o)
 .debug_aranges
                0x00000000000004a0       0x68 C:\GNAT\Ada_Drivers_Library\boards\NRF52_DK\obj\zfp_lib_Debug\libada_drivers_library.a(nrf-twi.o)
 .debug_aranges
                0x0000000000000508       0x68 C:\GNAT\Ada_Drivers_Library\boards\NRF52_DK\obj\zfp_lib_Debug\libada_drivers_library.a(nrf-uart.o)
 .debug_aranges
                0x0000000000000570       0x48 C:\GNAT\Ada_Drivers_Library\boards\NRF52_DK\obj\zfp_lib_Debug\libada_drivers_library.a(nrf52_dk-buttons.o)
 .debug_aranges
                0x00000000000005b8       0x38 C:\GNAT\Ada_Drivers_Library\boards\NRF52_DK\obj\zfp_lib_Debug\libada_drivers_library.a(nrf52_dk-leds.o)
 .debug_aranges
                0x00000000000005f0       0x98 C:\GNAT\Ada_Drivers_Library\boards\NRF52_DK\obj\zfp_lib_Debug\libada_drivers_library.a(nrf52_dk-time.o)
 .debug_aranges
                0x0000000000000688       0x18 C:\GNAT\Ada_Drivers_Library\boards\NRF52_DK\obj\zfp_lib_Debug\libada_drivers_library.a(nrf_svd-gpio.o)
 .debug_aranges
                0x00000000000006a0       0x18 C:\GNAT\Ada_Drivers_Library\boards\NRF52_DK\obj\zfp_lib_Debug\libada_drivers_library.a(nrf_svd-twi.o)
 .debug_aranges
                0x00000000000006b8       0x18 C:\GNAT\Ada_Drivers_Library\boards\NRF52_DK\obj\zfp_lib_Debug\libada_drivers_library.a(hal-gpio.o)
 .debug_aranges
                0x00000000000006d0       0x18 C:\GNAT\Ada_Drivers_Library\boards\NRF52_DK\obj\zfp_lib_Debug\libada_drivers_library.a(hal-i2c.o)
 .debug_aranges
                0x00000000000006e8       0x18 C:\GNAT\Ada_Drivers_Library\boards\NRF52_DK\obj\zfp_lib_Debug\libada_drivers_library.a(hal-spi.o)
 .debug_aranges
                0x0000000000000700       0x18 C:\GNAT\Ada_Drivers_Library\boards\NRF52_DK\obj\zfp_lib_Debug\libada_drivers_library.a(hal-time.o)
 .debug_aranges
                0x0000000000000718       0x18 C:\GNAT\Ada_Drivers_Library\boards\NRF52_DK\obj\zfp_lib_Debug\libada_drivers_library.a(hal-uart.o)
 .debug_aranges
                0x0000000000000730       0x20 C:\gnat\2020-arm-elf\arm-eabi\lib\gnat\zfp-cortex-m4f\adalib\libgnat.a(s-assert.o)
 .debug_aranges
                0x0000000000000750       0x18 C:\gnat\2020-arm-elf\arm-eabi\lib\gnat\zfp-cortex-m4f\adalib\libgnat.a(a-except.o)

.debug_pubnames
 *(.debug_pubnames)

.debug_info     0x0000000000000000     0xca4b
 *(.debug_info .gnu.linkonce.wi.*)
 .debug_info    0x0000000000000000      0x183 main.o
 .debug_info    0x0000000000000183      0x50f b__main.o
 .debug_info    0x0000000000000692      0xb13 C:\GNAT\Ada_Drivers_Library\boards\NRF52_DK\obj\zfp_lib_Debug\libada_drivers_library.a(cortex_m-nvic.o)
 .debug_info    0x00000000000011a5       0x44 C:\GNAT\Ada_Drivers_Library\boards\NRF52_DK\obj\zfp_lib_Debug\libada_drivers_library.a(memory_barriers.o)
 .debug_info    0x00000000000011e9      0x1ee C:\GNAT\Ada_Drivers_Library\boards\NRF52_DK\obj\zfp_lib_Debug\libada_drivers_library.a(nrf-clock.o)
 .debug_info    0x00000000000013d7     0x2f69 C:\GNAT\Ada_Drivers_Library\boards\NRF52_DK\obj\zfp_lib_Debug\libada_drivers_library.a(nrf-device.o)
 .debug_info    0x0000000000004340      0x894 C:\GNAT\Ada_Drivers_Library\boards\NRF52_DK\obj\zfp_lib_Debug\libada_drivers_library.a(nrf-events.o)
 .debug_info    0x0000000000004bd4      0x699 C:\GNAT\Ada_Drivers_Library\boards\NRF52_DK\obj\zfp_lib_Debug\libada_drivers_library.a(nrf-gpio.o)
 .debug_info    0x000000000000526d      0x2cc C:\GNAT\Ada_Drivers_Library\boards\NRF52_DK\obj\zfp_lib_Debug\libada_drivers_library.a(nrf-interrupts.o)
 .debug_info    0x0000000000005539      0xcd0 C:\GNAT\Ada_Drivers_Library\boards\NRF52_DK\obj\zfp_lib_Debug\libada_drivers_library.a(nrf-rtc.o)
 .debug_info    0x0000000000006209      0xda9 C:\GNAT\Ada_Drivers_Library\boards\NRF52_DK\obj\zfp_lib_Debug\libada_drivers_library.a(nrf-spi_master.o)
 .debug_info    0x0000000000006fb2      0x8c1 C:\GNAT\Ada_Drivers_Library\boards\NRF52_DK\obj\zfp_lib_Debug\libada_drivers_library.a(nrf-tasks.o)
 .debug_info    0x0000000000007873      0xdad C:\GNAT\Ada_Drivers_Library\boards\NRF52_DK\obj\zfp_lib_Debug\libada_drivers_library.a(nrf-timers.o)
 .debug_info    0x0000000000008620      0xf40 C:\GNAT\Ada_Drivers_Library\boards\NRF52_DK\obj\zfp_lib_Debug\libada_drivers_library.a(nrf-twi.o)
 .debug_info    0x0000000000009560      0xfba C:\GNAT\Ada_Drivers_Library\boards\NRF52_DK\obj\zfp_lib_Debug\libada_drivers_library.a(nrf-uart.o)
 .debug_info    0x000000000000a51a      0x54e C:\GNAT\Ada_Drivers_Library\boards\NRF52_DK\obj\zfp_lib_Debug\libada_drivers_library.a(nrf52_dk-buttons.o)
 .debug_info    0x000000000000aa68      0x561 C:\GNAT\Ada_Drivers_Library\boards\NRF52_DK\obj\zfp_lib_Debug\libada_drivers_library.a(nrf52_dk-leds.o)
 .debug_info    0x000000000000afc9      0x531 C:\GNAT\Ada_Drivers_Library\boards\NRF52_DK\obj\zfp_lib_Debug\libada_drivers_library.a(nrf52_dk-time.o)
 .debug_info    0x000000000000b4fa      0x839 C:\GNAT\Ada_Drivers_Library\boards\NRF52_DK\obj\zfp_lib_Debug\libada_drivers_library.a(nrf_svd-gpio.o)
 .debug_info    0x000000000000bd33      0x874 C:\GNAT\Ada_Drivers_Library\boards\NRF52_DK\obj\zfp_lib_Debug\libada_drivers_library.a(nrf_svd-twi.o)
 .debug_info    0x000000000000c5a7       0x3a C:\GNAT\Ada_Drivers_Library\boards\NRF52_DK\obj\zfp_lib_Debug\libada_drivers_library.a(hal-gpio.o)
 .debug_info    0x000000000000c5e1       0x5d C:\GNAT\Ada_Drivers_Library\boards\NRF52_DK\obj\zfp_lib_Debug\libada_drivers_library.a(hal-i2c.o)
 .debug_info    0x000000000000c63e       0x56 C:\GNAT\Ada_Drivers_Library\boards\NRF52_DK\obj\zfp_lib_Debug\libada_drivers_library.a(hal-spi.o)
 .debug_info    0x000000000000c694       0x3a C:\GNAT\Ada_Drivers_Library\boards\NRF52_DK\obj\zfp_lib_Debug\libada_drivers_library.a(hal-time.o)
 .debug_info    0x000000000000c6ce       0x4f C:\GNAT\Ada_Drivers_Library\boards\NRF52_DK\obj\zfp_lib_Debug\libada_drivers_library.a(hal-uart.o)
 .debug_info    0x000000000000c71d      0x1d1 C:\gnat\2020-arm-elf\arm-eabi\lib\gnat\zfp-cortex-m4f\adalib\libgnat.a(s-assert.o)
 .debug_info    0x000000000000c8ee      0x15d C:\gnat\2020-arm-elf\arm-eabi\lib\gnat\zfp-cortex-m4f\adalib\libgnat.a(a-except.o)

.debug_abbrev   0x0000000000000000     0x2c43
 *(.debug_abbrev)
 .debug_abbrev  0x0000000000000000       0xfd main.o
 .debug_abbrev  0x00000000000000fd      0x228 b__main.o
 .debug_abbrev  0x0000000000000325      0x234 C:\GNAT\Ada_Drivers_Library\boards\NRF52_DK\obj\zfp_lib_Debug\libada_drivers_library.a(cortex_m-nvic.o)
 .debug_abbrev  0x0000000000000559       0x3b C:\GNAT\Ada_Drivers_Library\boards\NRF52_DK\obj\zfp_lib_Debug\libada_drivers_library.a(memory_barriers.o)
 .debug_abbrev  0x0000000000000594       0xef C:\GNAT\Ada_Drivers_Library\boards\NRF52_DK\obj\zfp_lib_Debug\libada_drivers_library.a(nrf-clock.o)
 .debug_abbrev  0x0000000000000683      0x394 C:\GNAT\Ada_Drivers_Library\boards\NRF52_DK\obj\zfp_lib_Debug\libada_drivers_library.a(nrf-device.o)
 .debug_abbrev  0x0000000000000a17      0x11e C:\GNAT\Ada_Drivers_Library\boards\NRF52_DK\obj\zfp_lib_Debug\libada_drivers_library.a(nrf-events.o)
 .debug_abbrev  0x0000000000000b35      0x202 C:\GNAT\Ada_Drivers_Library\boards\NRF52_DK\obj\zfp_lib_Debug\libada_drivers_library.a(nrf-gpio.o)
 .debug_abbrev  0x0000000000000d37      0x18b C:\GNAT\Ada_Drivers_Library\boards\NRF52_DK\obj\zfp_lib_Debug\libada_drivers_library.a(nrf-interrupts.o)
 .debug_abbrev  0x0000000000000ec2      0x32b C:\GNAT\Ada_Drivers_Library\boards\NRF52_DK\obj\zfp_lib_Debug\libada_drivers_library.a(nrf-rtc.o)
 .debug_abbrev  0x00000000000011ed      0x336 C:\GNAT\Ada_Drivers_Library\boards\NRF52_DK\obj\zfp_lib_Debug\libada_drivers_library.a(nrf-spi_master.o)
 .debug_abbrev  0x0000000000001523       0xdf C:\GNAT\Ada_Drivers_Library\boards\NRF52_DK\obj\zfp_lib_Debug\libada_drivers_library.a(nrf-tasks.o)
 .debug_abbrev  0x0000000000001602      0x34d C:\GNAT\Ada_Drivers_Library\boards\NRF52_DK\obj\zfp_lib_Debug\libada_drivers_library.a(nrf-timers.o)
 .debug_abbrev  0x000000000000194f      0x39c C:\GNAT\Ada_Drivers_Library\boards\NRF52_DK\obj\zfp_lib_Debug\libada_drivers_library.a(nrf-twi.o)
 .debug_abbrev  0x0000000000001ceb      0x34c C:\GNAT\Ada_Drivers_Library\boards\NRF52_DK\obj\zfp_lib_Debug\libada_drivers_library.a(nrf-uart.o)
 .debug_abbrev  0x0000000000002037      0x1c2 C:\GNAT\Ada_Drivers_Library\boards\NRF52_DK\obj\zfp_lib_Debug\libada_drivers_library.a(nrf52_dk-buttons.o)
 .debug_abbrev  0x00000000000021f9      0x190 C:\GNAT\Ada_Drivers_Library\boards\NRF52_DK\obj\zfp_lib_Debug\libada_drivers_library.a(nrf52_dk-leds.o)
 .debug_abbrev  0x0000000000002389      0x22a C:\GNAT\Ada_Drivers_Library\boards\NRF52_DK\obj\zfp_lib_Debug\libada_drivers_library.a(nrf52_dk-time.o)
 .debug_abbrev  0x00000000000025b3      0x1f0 C:\GNAT\Ada_Drivers_Library\boards\NRF52_DK\obj\zfp_lib_Debug\libada_drivers_library.a(nrf_svd-gpio.o)
 .debug_abbrev  0x00000000000027a3      0x1c5 C:\GNAT\Ada_Drivers_Library\boards\NRF52_DK\obj\zfp_lib_Debug\libada_drivers_library.a(nrf_svd-twi.o)
 .debug_abbrev  0x0000000000002968       0x1b C:\GNAT\Ada_Drivers_Library\boards\NRF52_DK\obj\zfp_lib_Debug\libada_drivers_library.a(hal-gpio.o)
 .debug_abbrev  0x0000000000002983       0x28 C:\GNAT\Ada_Drivers_Library\boards\NRF52_DK\obj\zfp_lib_Debug\libada_drivers_library.a(hal-i2c.o)
 .debug_abbrev  0x00000000000029ab       0x28 C:\GNAT\Ada_Drivers_Library\boards\NRF52_DK\obj\zfp_lib_Debug\libada_drivers_library.a(hal-spi.o)
 .debug_abbrev  0x00000000000029d3       0x1b C:\GNAT\Ada_Drivers_Library\boards\NRF52_DK\obj\zfp_lib_Debug\libada_drivers_library.a(hal-time.o)
 .debug_abbrev  0x00000000000029ee       0x28 C:\GNAT\Ada_Drivers_Library\boards\NRF52_DK\obj\zfp_lib_Debug\libada_drivers_library.a(hal-uart.o)
 .debug_abbrev  0x0000000000002a16      0x132 C:\gnat\2020-arm-elf\arm-eabi\lib\gnat\zfp-cortex-m4f\adalib\libgnat.a(s-assert.o)
 .debug_abbrev  0x0000000000002b48       0xfb C:\gnat\2020-arm-elf\arm-eabi\lib\gnat\zfp-cortex-m4f\adalib\libgnat.a(a-except.o)

.debug_line     0x0000000000000000     0x3a4f
 *(.debug_line)
 .debug_line    0x0000000000000000      0x167 main.o
 .debug_line    0x0000000000000167      0x170 b__main.o
 .debug_line    0x00000000000002d7      0x4ab C:\GNAT\Ada_Drivers_Library\boards\NRF52_DK\obj\zfp_lib_Debug\libada_drivers_library.a(cortex_m-nvic.o)
 .debug_line    0x0000000000000782       0x94 C:\GNAT\Ada_Drivers_Library\boards\NRF52_DK\obj\zfp_lib_Debug\libada_drivers_library.a(memory_barriers.o)
 .debug_line    0x0000000000000816      0x266 C:\GNAT\Ada_Drivers_Library\boards\NRF52_DK\obj\zfp_lib_Debug\libada_drivers_library.a(nrf-clock.o)
 .debug_line    0x0000000000000a7c      0x4d1 C:\GNAT\Ada_Drivers_Library\boards\NRF52_DK\obj\zfp_lib_Debug\libada_drivers_library.a(nrf-device.o)
 .debug_line    0x0000000000000f4d      0x1eb C:\GNAT\Ada_Drivers_Library\boards\NRF52_DK\obj\zfp_lib_Debug\libada_drivers_library.a(nrf-events.o)
 .debug_line    0x0000000000001138      0x470 C:\GNAT\Ada_Drivers_Library\boards\NRF52_DK\obj\zfp_lib_Debug\libada_drivers_library.a(nrf-gpio.o)
 .debug_line    0x00000000000015a8      0x1a7 C:\GNAT\Ada_Drivers_Library\boards\NRF52_DK\obj\zfp_lib_Debug\libada_drivers_library.a(nrf-interrupts.o)
 .debug_line    0x000000000000174f      0x2eb C:\GNAT\Ada_Drivers_Library\boards\NRF52_DK\obj\zfp_lib_Debug\libada_drivers_library.a(nrf-rtc.o)
 .debug_line    0x0000000000001a3a      0x624 C:\GNAT\Ada_Drivers_Library\boards\NRF52_DK\obj\zfp_lib_Debug\libada_drivers_library.a(nrf-spi_master.o)
 .debug_line    0x000000000000205e      0x10a C:\GNAT\Ada_Drivers_Library\boards\NRF52_DK\obj\zfp_lib_Debug\libada_drivers_library.a(nrf-tasks.o)
 .debug_line    0x0000000000002168      0x486 C:\GNAT\Ada_Drivers_Library\boards\NRF52_DK\obj\zfp_lib_Debug\libada_drivers_library.a(nrf-timers.o)
 .debug_line    0x00000000000025ee      0x4a8 C:\GNAT\Ada_Drivers_Library\boards\NRF52_DK\obj\zfp_lib_Debug\libada_drivers_library.a(nrf-twi.o)
 .debug_line    0x0000000000002a96      0x349 C:\GNAT\Ada_Drivers_Library\boards\NRF52_DK\obj\zfp_lib_Debug\libada_drivers_library.a(nrf-uart.o)
 .debug_line    0x0000000000002ddf      0x2c9 C:\GNAT\Ada_Drivers_Library\boards\NRF52_DK\obj\zfp_lib_Debug\libada_drivers_library.a(nrf52_dk-buttons.o)
 .debug_line    0x00000000000030a8      0x1d1 C:\GNAT\Ada_Drivers_Library\boards\NRF52_DK\obj\zfp_lib_Debug\libada_drivers_library.a(nrf52_dk-leds.o)
 .debug_line    0x0000000000003279      0x423 C:\GNAT\Ada_Drivers_Library\boards\NRF52_DK\obj\zfp_lib_Debug\libada_drivers_library.a(nrf52_dk-time.o)
 .debug_line    0x000000000000369c       0x96 C:\GNAT\Ada_Drivers_Library\boards\NRF52_DK\obj\zfp_lib_Debug\libada_drivers_library.a(nrf_svd-gpio.o)
 .debug_line    0x0000000000003732       0xe0 C:\GNAT\Ada_Drivers_Library\boards\NRF52_DK\obj\zfp_lib_Debug\libada_drivers_library.a(nrf_svd-twi.o)
 .debug_line    0x0000000000003812       0x1d C:\GNAT\Ada_Drivers_Library\boards\NRF52_DK\obj\zfp_lib_Debug\libada_drivers_library.a(hal-gpio.o)
 .debug_line    0x000000000000382f       0x1d C:\GNAT\Ada_Drivers_Library\boards\NRF52_DK\obj\zfp_lib_Debug\libada_drivers_library.a(hal-i2c.o)
 .debug_line    0x000000000000384c       0x1d C:\GNAT\Ada_Drivers_Library\boards\NRF52_DK\obj\zfp_lib_Debug\libada_drivers_library.a(hal-spi.o)
 .debug_line    0x0000000000003869       0x1d C:\GNAT\Ada_Drivers_Library\boards\NRF52_DK\obj\zfp_lib_Debug\libada_drivers_library.a(hal-time.o)
 .debug_line    0x0000000000003886       0x1d C:\GNAT\Ada_Drivers_Library\boards\NRF52_DK\obj\zfp_lib_Debug\libada_drivers_library.a(hal-uart.o)
 .debug_line    0x00000000000038a3       0xf5 C:\gnat\2020-arm-elf\arm-eabi\lib\gnat\zfp-cortex-m4f\adalib\libgnat.a(s-assert.o)
 .debug_line    0x0000000000003998       0xb7 C:\gnat\2020-arm-elf\arm-eabi\lib\gnat\zfp-cortex-m4f\adalib\libgnat.a(a-except.o)

.debug_frame    0x0000000000000000     0x24fc
 *(.debug_frame)
 .debug_frame   0x0000000000000000       0x30 main.o
 .debug_frame   0x0000000000000030       0x98 b__main.o
 .debug_frame   0x00000000000000c8      0x278 C:\GNAT\Ada_Drivers_Library\boards\NRF52_DK\obj\zfp_lib_Debug\libada_drivers_library.a(cortex_m-nvic.o)
 .debug_frame   0x0000000000000340       0x30 C:\GNAT\Ada_Drivers_Library\boards\NRF52_DK\obj\zfp_lib_Debug\libada_drivers_library.a(memory_barriers.o)
 .debug_frame   0x0000000000000370      0x168 C:\GNAT\Ada_Drivers_Library\boards\NRF52_DK\obj\zfp_lib_Debug\libada_drivers_library.a(nrf-clock.o)
 .debug_frame   0x00000000000004d8      0x194 C:\GNAT\Ada_Drivers_Library\boards\NRF52_DK\obj\zfp_lib_Debug\libada_drivers_library.a(nrf-device.o)
 .debug_frame   0x000000000000066c       0xf0 C:\GNAT\Ada_Drivers_Library\boards\NRF52_DK\obj\zfp_lib_Debug\libada_drivers_library.a(nrf-events.o)
 .debug_frame   0x000000000000075c      0x258 C:\GNAT\Ada_Drivers_Library\boards\NRF52_DK\obj\zfp_lib_Debug\libada_drivers_library.a(nrf-gpio.o)
 .debug_frame   0x00000000000009b4      0x104 C:\GNAT\Ada_Drivers_Library\boards\NRF52_DK\obj\zfp_lib_Debug\libada_drivers_library.a(nrf-interrupts.o)
 .debug_frame   0x0000000000000ab8      0x194 C:\GNAT\Ada_Drivers_Library\boards\NRF52_DK\obj\zfp_lib_Debug\libada_drivers_library.a(nrf-rtc.o)
 .debug_frame   0x0000000000000c4c      0x294 C:\GNAT\Ada_Drivers_Library\boards\NRF52_DK\obj\zfp_lib_Debug\libada_drivers_library.a(nrf-spi_master.o)
 .debug_frame   0x0000000000000ee0       0x84 C:\GNAT\Ada_Drivers_Library\boards\NRF52_DK\obj\zfp_lib_Debug\libada_drivers_library.a(nrf-tasks.o)
 .debug_frame   0x0000000000000f64      0x3bc C:\GNAT\Ada_Drivers_Library\boards\NRF52_DK\obj\zfp_lib_Debug\libada_drivers_library.a(nrf-timers.o)
 .debug_frame   0x0000000000001320      0x248 C:\GNAT\Ada_Drivers_Library\boards\NRF52_DK\obj\zfp_lib_Debug\libada_drivers_library.a(nrf-twi.o)
 .debug_frame   0x0000000000001568      0x260 C:\GNAT\Ada_Drivers_Library\boards\NRF52_DK\obj\zfp_lib_Debug\libada_drivers_library.a(nrf-uart.o)
 .debug_frame   0x00000000000017c8      0x11c C:\GNAT\Ada_Drivers_Library\boards\NRF52_DK\obj\zfp_lib_Debug\libada_drivers_library.a(nrf52_dk-buttons.o)
 .debug_frame   0x00000000000018e4       0xa0 C:\GNAT\Ada_Drivers_Library\boards\NRF52_DK\obj\zfp_lib_Debug\libada_drivers_library.a(nrf52_dk-leds.o)
 .debug_frame   0x0000000000001984      0x2ec C:\GNAT\Ada_Drivers_Library\boards\NRF52_DK\obj\zfp_lib_Debug\libada_drivers_library.a(nrf52_dk-time.o)
 .debug_frame   0x0000000000001c70      0x604 C:\GNAT\Ada_Drivers_Library\boards\NRF52_DK\obj\zfp_lib_Debug\libada_drivers_library.a(nrf_svd-gpio.o)
 .debug_frame   0x0000000000002274      0x19c C:\GNAT\Ada_Drivers_Library\boards\NRF52_DK\obj\zfp_lib_Debug\libada_drivers_library.a(nrf_svd-twi.o)
 .debug_frame   0x0000000000002410       0x60 C:\GNAT\Ada_Drivers_Library\boards\NRF52_DK\obj\zfp_lib_Debug\libada_drivers_library.a(hal-spi.o)
 .debug_frame   0x0000000000002470       0x60 C:\GNAT\Ada_Drivers_Library\boards\NRF52_DK\obj\zfp_lib_Debug\libada_drivers_library.a(hal-uart.o)
 .debug_frame   0x00000000000024d0       0x2c C:\gnat\2020-arm-elf\arm-eabi\lib\gnat\zfp-cortex-m4f\adalib\libgnat.a(s-assert.o)

.debug_str      0x0000000000000000     0xa56a
 *(.debug_str)
 .debug_str     0x0000000000000000      0x3e1 main.o
                                        0x3f3 (size before relaxing)
 .debug_str     0x00000000000003e1      0x83c b__main.o
                                        0x8d4 (size before relaxing)
 .debug_str     0x0000000000000c1d      0xd25 C:\GNAT\Ada_Drivers_Library\boards\NRF52_DK\obj\zfp_lib_Debug\libada_drivers_library.a(cortex_m-nvic.o)
                                        0xd80 (size before relaxing)
 .debug_str     0x0000000000001942       0x89 C:\GNAT\Ada_Drivers_Library\boards\NRF52_DK\obj\zfp_lib_Debug\libada_drivers_library.a(memory_barriers.o)
                                        0x298 (size before relaxing)
 .debug_str     0x00000000000019cb      0x329 C:\GNAT\Ada_Drivers_Library\boards\NRF52_DK\obj\zfp_lib_Debug\libada_drivers_library.a(nrf-clock.o)
                                        0x57b (size before relaxing)
 .debug_str     0x0000000000001cf4     0x38da C:\GNAT\Ada_Drivers_Library\boards\NRF52_DK\obj\zfp_lib_Debug\libada_drivers_library.a(nrf-device.o)
                                       0x3dea (size before relaxing)
 .debug_str     0x00000000000055ce      0x9b7 C:\GNAT\Ada_Drivers_Library\boards\NRF52_DK\obj\zfp_lib_Debug\libada_drivers_library.a(nrf-events.o)
                                        0xe54 (size before relaxing)
 .debug_str     0x0000000000005f85      0x718 C:\GNAT\Ada_Drivers_Library\boards\NRF52_DK\obj\zfp_lib_Debug\libada_drivers_library.a(nrf-gpio.o)
                                        0xb47 (size before relaxing)
 .debug_str     0x000000000000669d      0x62a C:\GNAT\Ada_Drivers_Library\boards\NRF52_DK\obj\zfp_lib_Debug\libada_drivers_library.a(nrf-interrupts.o)
                                        0x8b7 (size before relaxing)
 .debug_str     0x0000000000006cc7      0x1ed C:\GNAT\Ada_Drivers_Library\boards\NRF52_DK\obj\zfp_lib_Debug\libada_drivers_library.a(nrf-rtc.o)
                                       0x102a (size before relaxing)
 .debug_str     0x0000000000006eb4      0x67d C:\GNAT\Ada_Drivers_Library\boards\NRF52_DK\obj\zfp_lib_Debug\libada_drivers_library.a(nrf-spi_master.o)
                                        0xf15 (size before relaxing)
 .debug_str     0x0000000000007531      0xa03 C:\GNAT\Ada_Drivers_Library\boards\NRF52_DK\obj\zfp_lib_Debug\libada_drivers_library.a(nrf-tasks.o)
                                        0xf14 (size before relaxing)
 .debug_str     0x0000000000007f34      0x358 C:\GNAT\Ada_Drivers_Library\boards\NRF52_DK\obj\zfp_lib_Debug\libada_drivers_library.a(nrf-timers.o)
                                       0x12b3 (size before relaxing)
 .debug_str     0x000000000000828c      0x2ff C:\GNAT\Ada_Drivers_Library\boards\NRF52_DK\obj\zfp_lib_Debug\libada_drivers_library.a(nrf-twi.o)
                                       0x13a7 (size before relaxing)
 .debug_str     0x000000000000858b      0x400 C:\GNAT\Ada_Drivers_Library\boards\NRF52_DK\obj\zfp_lib_Debug\libada_drivers_library.a(nrf-uart.o)
                                       0x153b (size before relaxing)
 .debug_str     0x000000000000898b      0x372 C:\GNAT\Ada_Drivers_Library\boards\NRF52_DK\obj\zfp_lib_Debug\libada_drivers_library.a(nrf52_dk-buttons.o)
                                        0x973 (size before relaxing)
 .debug_str     0x0000000000008cfd      0x3a0 C:\GNAT\Ada_Drivers_Library\boards\NRF52_DK\obj\zfp_lib_Debug\libada_drivers_library.a(nrf52_dk-leds.o)
                                        0x99a (size before relaxing)
 .debug_str     0x000000000000909d      0x3ca C:\GNAT\Ada_Drivers_Library\boards\NRF52_DK\obj\zfp_lib_Debug\libada_drivers_library.a(nrf52_dk-time.o)
                                        0x829 (size before relaxing)
 .debug_str     0x0000000000009467      0x77a C:\GNAT\Ada_Drivers_Library\boards\NRF52_DK\obj\zfp_lib_Debug\libada_drivers_library.a(nrf_svd-gpio.o)
                                        0xcdf (size before relaxing)
 .debug_str     0x0000000000009be1       0x7a C:\GNAT\Ada_Drivers_Library\boards\NRF52_DK\obj\zfp_lib_Debug\libada_drivers_library.a(nrf_svd-twi.o)
                                        0xde1 (size before relaxing)
 .debug_str     0x0000000000009c5b       0x31 C:\GNAT\Ada_Drivers_Library\boards\NRF52_DK\obj\zfp_lib_Debug\libada_drivers_library.a(hal-gpio.o)
                                        0x26a (size before relaxing)
 .debug_str     0x0000000000009c8c       0x30 C:\GNAT\Ada_Drivers_Library\boards\NRF52_DK\obj\zfp_lib_Debug\libada_drivers_library.a(hal-i2c.o)
                                        0x2c5 (size before relaxing)
 .debug_str     0x0000000000009cbc       0x30 C:\GNAT\Ada_Drivers_Library\boards\NRF52_DK\obj\zfp_lib_Debug\libada_drivers_library.a(hal-spi.o)
                                        0x2b3 (size before relaxing)
 .debug_str     0x0000000000009cec       0x31 C:\GNAT\Ada_Drivers_Library\boards\NRF52_DK\obj\zfp_lib_Debug\libada_drivers_library.a(hal-time.o)
                                        0x26a (size before relaxing)
 .debug_str     0x0000000000009d1d       0x31 C:\GNAT\Ada_Drivers_Library\boards\NRF52_DK\obj\zfp_lib_Debug\libada_drivers_library.a(hal-uart.o)
                                        0x29f (size before relaxing)
 .debug_str     0x0000000000009d4e      0x473 C:\gnat\2020-arm-elf\arm-eabi\lib\gnat\zfp-cortex-m4f\adalib\libgnat.a(s-assert.o)
                                        0x4f0 (size before relaxing)
 .debug_str     0x000000000000a1c1      0x3a9 C:\gnat\2020-arm-elf\arm-eabi\lib\gnat\zfp-cortex-m4f\adalib\libgnat.a(a-except.o)
                                        0x47b (size before relaxing)

.debug_loc      0x0000000000000000       0x2c
 *(.debug_loc)
 .debug_loc     0x0000000000000000       0x2c C:\gnat\2020-arm-elf\arm-eabi\lib\gnat\zfp-cortex-m4f\adalib\libgnat.a(s-assert.o)

.debug_macinfo
 *(.debug_macinfo)

.debug_pubtypes
 *(.debug_pubtypes)

.debug_ranges   0x0000000000000000      0x578
 *(.debug_ranges)
 .debug_ranges  0x0000000000000000       0x10 main.o
 .debug_ranges  0x0000000000000010       0x20 b__main.o
 .debug_ranges  0x0000000000000030       0x70 C:\GNAT\Ada_Drivers_Library\boards\NRF52_DK\obj\zfp_lib_Debug\libada_drivers_library.a(cortex_m-nvic.o)
 .debug_ranges  0x00000000000000a0       0x10 C:\GNAT\Ada_Drivers_Library\boards\NRF52_DK\obj\zfp_lib_Debug\libada_drivers_library.a(memory_barriers.o)
 .debug_ranges  0x00000000000000b0       0x60 C:\GNAT\Ada_Drivers_Library\boards\NRF52_DK\obj\zfp_lib_Debug\libada_drivers_library.a(nrf-clock.o)
 .debug_ranges  0x0000000000000110       0x70 C:\GNAT\Ada_Drivers_Library\boards\NRF52_DK\obj\zfp_lib_Debug\libada_drivers_library.a(nrf-device.o)
 .debug_ranges  0x0000000000000180       0x38 C:\GNAT\Ada_Drivers_Library\boards\NRF52_DK\obj\zfp_lib_Debug\libada_drivers_library.a(nrf-events.o)
 .debug_ranges  0x00000000000001b8       0x58 C:\GNAT\Ada_Drivers_Library\boards\NRF52_DK\obj\zfp_lib_Debug\libada_drivers_library.a(nrf-gpio.o)
 .debug_ranges  0x0000000000000210       0x40 C:\GNAT\Ada_Drivers_Library\boards\NRF52_DK\obj\zfp_lib_Debug\libada_drivers_library.a(nrf-interrupts.o)
 .debug_ranges  0x0000000000000250       0x50 C:\GNAT\Ada_Drivers_Library\boards\NRF52_DK\obj\zfp_lib_Debug\libada_drivers_library.a(nrf-rtc.o)
 .debug_ranges  0x00000000000002a0       0x68 C:\GNAT\Ada_Drivers_Library\boards\NRF52_DK\obj\zfp_lib_Debug\libada_drivers_library.a(nrf-spi_master.o)
 .debug_ranges  0x0000000000000308       0x20 C:\GNAT\Ada_Drivers_Library\boards\NRF52_DK\obj\zfp_lib_Debug\libada_drivers_library.a(nrf-tasks.o)
 .debug_ranges  0x0000000000000328       0xa8 C:\GNAT\Ada_Drivers_Library\boards\NRF52_DK\obj\zfp_lib_Debug\libada_drivers_library.a(nrf-timers.o)
 .debug_ranges  0x00000000000003d0       0x58 C:\GNAT\Ada_Drivers_Library\boards\NRF52_DK\obj\zfp_lib_Debug\libada_drivers_library.a(nrf-twi.o)
 .debug_ranges  0x0000000000000428       0x58 C:\GNAT\Ada_Drivers_Library\boards\NRF52_DK\obj\zfp_lib_Debug\libada_drivers_library.a(nrf-uart.o)
 .debug_ranges  0x0000000000000480       0x38 C:\GNAT\Ada_Drivers_Library\boards\NRF52_DK\obj\zfp_lib_Debug\libada_drivers_library.a(nrf52_dk-buttons.o)
 .debug_ranges  0x00000000000004b8       0x28 C:\GNAT\Ada_Drivers_Library\boards\NRF52_DK\obj\zfp_lib_Debug\libada_drivers_library.a(nrf52_dk-leds.o)
 .debug_ranges  0x00000000000004e0       0x88 C:\GNAT\Ada_Drivers_Library\boards\NRF52_DK\obj\zfp_lib_Debug\libada_drivers_library.a(nrf52_dk-time.o)
 .debug_ranges  0x0000000000000568       0x10 C:\gnat\2020-arm-elf\arm-eabi\lib\gnat\zfp-cortex-m4f\adalib\libgnat.a(s-assert.o)

.comment        0x0000000000000000       0x3d
 .comment       0x0000000000000000       0x3d main.o
                                         0x3e (size before relaxing)
 .comment       0x000000000000003d       0x3e b__main.o
 .comment       0x000000000000003d       0x3e C:\GNAT\Ada_Drivers_Library\boards\NRF52_DK\obj\zfp_lib_Debug\libada_drivers_library.a(cortex_m-nvic.o)
 .comment       0x000000000000003d       0x3e C:\GNAT\Ada_Drivers_Library\boards\NRF52_DK\obj\zfp_lib_Debug\libada_drivers_library.a(memory_barriers.o)
 .comment       0x000000000000003d       0x3e C:\GNAT\Ada_Drivers_Library\boards\NRF52_DK\obj\zfp_lib_Debug\libada_drivers_library.a(nrf-clock.o)
 .comment       0x000000000000003d       0x3e C:\GNAT\Ada_Drivers_Library\boards\NRF52_DK\obj\zfp_lib_Debug\libada_drivers_library.a(nrf-device.o)
 .comment       0x000000000000003d       0x3e C:\GNAT\Ada_Drivers_Library\boards\NRF52_DK\obj\zfp_lib_Debug\libada_drivers_library.a(nrf-events.o)
 .comment       0x000000000000003d       0x3e C:\GNAT\Ada_Drivers_Library\boards\NRF52_DK\obj\zfp_lib_Debug\libada_drivers_library.a(nrf-gpio.o)
 .comment       0x000000000000003d       0x3e C:\GNAT\Ada_Drivers_Library\boards\NRF52_DK\obj\zfp_lib_Debug\libada_drivers_library.a(nrf-interrupts.o)
 .comment       0x000000000000003d       0x3e C:\GNAT\Ada_Drivers_Library\boards\NRF52_DK\obj\zfp_lib_Debug\libada_drivers_library.a(nrf-rtc.o)
 .comment       0x000000000000003d       0x3e C:\GNAT\Ada_Drivers_Library\boards\NRF52_DK\obj\zfp_lib_Debug\libada_drivers_library.a(nrf-spi_master.o)
 .comment       0x000000000000003d       0x3e C:\GNAT\Ada_Drivers_Library\boards\NRF52_DK\obj\zfp_lib_Debug\libada_drivers_library.a(nrf-tasks.o)
 .comment       0x000000000000003d       0x3e C:\GNAT\Ada_Drivers_Library\boards\NRF52_DK\obj\zfp_lib_Debug\libada_drivers_library.a(nrf-timers.o)
 .comment       0x000000000000003d       0x3e C:\GNAT\Ada_Drivers_Library\boards\NRF52_DK\obj\zfp_lib_Debug\libada_drivers_library.a(nrf-twi.o)
 .comment       0x000000000000003d       0x3e C:\GNAT\Ada_Drivers_Library\boards\NRF52_DK\obj\zfp_lib_Debug\libada_drivers_library.a(nrf-uart.o)
 .comment       0x000000000000003d       0x3e C:\GNAT\Ada_Drivers_Library\boards\NRF52_DK\obj\zfp_lib_Debug\libada_drivers_library.a(nrf52_dk-buttons.o)
 .comment       0x000000000000003d       0x3e C:\GNAT\Ada_Drivers_Library\boards\NRF52_DK\obj\zfp_lib_Debug\libada_drivers_library.a(nrf52_dk-leds.o)
 .comment       0x000000000000003d       0x3e C:\GNAT\Ada_Drivers_Library\boards\NRF52_DK\obj\zfp_lib_Debug\libada_drivers_library.a(nrf52_dk-time.o)
 .comment       0x000000000000003d       0x3e C:\GNAT\Ada_Drivers_Library\boards\NRF52_DK\obj\zfp_lib_Debug\libada_drivers_library.a(nrf_svd-gpio.o)
 .comment       0x000000000000003d       0x3e C:\GNAT\Ada_Drivers_Library\boards\NRF52_DK\obj\zfp_lib_Debug\libada_drivers_library.a(nrf_svd-twi.o)
 .comment       0x000000000000003d       0x3e C:\GNAT\Ada_Drivers_Library\boards\NRF52_DK\obj\zfp_lib_Debug\libada_drivers_library.a(hal-gpio.o)
 .comment       0x000000000000003d       0x3e C:\GNAT\Ada_Drivers_Library\boards\NRF52_DK\obj\zfp_lib_Debug\libada_drivers_library.a(hal-i2c.o)
 .comment       0x000000000000003d       0x3e C:\GNAT\Ada_Drivers_Library\boards\NRF52_DK\obj\zfp_lib_Debug\libada_drivers_library.a(hal-spi.o)
 .comment       0x000000000000003d       0x3e C:\GNAT\Ada_Drivers_Library\boards\NRF52_DK\obj\zfp_lib_Debug\libada_drivers_library.a(hal-time.o)
 .comment       0x000000000000003d       0x3e C:\GNAT\Ada_Drivers_Library\boards\NRF52_DK\obj\zfp_lib_Debug\libada_drivers_library.a(hal-uart.o)
 .comment       0x000000000000003d       0x3e C:\gnat\2020-arm-elf\arm-eabi\lib\gnat\zfp-cortex-m4f\adalib\libgnat.a(a-elchha.o)
 .comment       0x000000000000003d       0x3e C:\gnat\2020-arm-elf\arm-eabi\lib\gnat\zfp-cortex-m4f\adalib\libgnat.a(g-io.o)
 .comment       0x000000000000003d       0x3e C:\gnat\2020-arm-elf\arm-eabi\lib\gnat\zfp-cortex-m4f\adalib\libgnat.a(s-assert.o)
 .comment       0x000000000000003d       0x3e C:\gnat\2020-arm-elf\arm-eabi\lib\gnat\zfp-cortex-m4f\adalib\libgnat.a(s-macres.o)
 .comment       0x000000000000003d       0x3e C:\gnat\2020-arm-elf\arm-eabi\lib\gnat\zfp-cortex-m4f\adalib\libgnat.a(s-memcop.o)
 .comment       0x000000000000003d       0x3e C:\gnat\2020-arm-elf\arm-eabi\lib\gnat\zfp-cortex-m4f\adalib\libgnat.a(s-memset.o)
 .comment       0x000000000000003d       0x3e C:\gnat\2020-arm-elf\arm-eabi\lib\gnat\zfp-cortex-m4f\adalib\libgnat.a(s-secsta.o)
 .comment       0x000000000000003d       0x3e C:\gnat\2020-arm-elf\arm-eabi\lib\gnat\zfp-cortex-m4f\adalib\libgnat.a(s-textio.o)
 .comment       0x000000000000003d       0x3e C:\gnat\2020-arm-elf\arm-eabi\lib\gnat\zfp-cortex-m4f\adalib\libgnat.a(a-except.o)
 .comment       0x000000000000003d       0x3e C:\gnat\2020-arm-elf\arm-eabi\lib\gnat\zfp-cortex-m4f\adalib\libgnat.a(s-semiho.o)

.ARM.attributes
                0x0000000000000000       0x30
 .ARM.attributes
                0x0000000000000000       0x32 main.o
 .ARM.attributes
                0x0000000000000032       0x32 b__main.o
 .ARM.attributes
                0x0000000000000064       0x32 C:\GNAT\Ada_Drivers_Library\boards\NRF52_DK\obj\zfp_lib_Debug\libada_drivers_library.a(cortex_m-nvic.o)
 .ARM.attributes
                0x0000000000000096       0x25 C:\GNAT\Ada_Drivers_Library\boards\NRF52_DK\obj\zfp_lib_Debug\libada_drivers_library.a(crt0.o)
 .ARM.attributes
                0x00000000000000bb       0x32 C:\GNAT\Ada_Drivers_Library\boards\NRF52_DK\obj\zfp_lib_Debug\libada_drivers_library.a(memory_barriers.o)
 .ARM.attributes
                0x00000000000000ed       0x32 C:\GNAT\Ada_Drivers_Library\boards\NRF52_DK\obj\zfp_lib_Debug\libada_drivers_library.a(nrf-clock.o)
 .ARM.attributes
                0x000000000000011f       0x32 C:\GNAT\Ada_Drivers_Library\boards\NRF52_DK\obj\zfp_lib_Debug\libada_drivers_library.a(nrf-device.o)
 .ARM.attributes
                0x0000000000000151       0x32 C:\GNAT\Ada_Drivers_Library\boards\NRF52_DK\obj\zfp_lib_Debug\libada_drivers_library.a(nrf-events.o)
 .ARM.attributes
                0x0000000000000183       0x32 C:\GNAT\Ada_Drivers_Library\boards\NRF52_DK\obj\zfp_lib_Debug\libada_drivers_library.a(nrf-gpio.o)
 .ARM.attributes
                0x00000000000001b5       0x32 C:\GNAT\Ada_Drivers_Library\boards\NRF52_DK\obj\zfp_lib_Debug\libada_drivers_library.a(nrf-interrupts.o)
 .ARM.attributes
                0x00000000000001e7       0x32 C:\GNAT\Ada_Drivers_Library\boards\NRF52_DK\obj\zfp_lib_Debug\libada_drivers_library.a(nrf-rtc.o)
 .ARM.attributes
                0x0000000000000219       0x32 C:\GNAT\Ada_Drivers_Library\boards\NRF52_DK\obj\zfp_lib_Debug\libada_drivers_library.a(nrf-spi_master.o)
 .ARM.attributes
                0x000000000000024b       0x32 C:\GNAT\Ada_Drivers_Library\boards\NRF52_DK\obj\zfp_lib_Debug\libada_drivers_library.a(nrf-tasks.o)
 .ARM.attributes
                0x000000000000027d       0x32 C:\GNAT\Ada_Drivers_Library\boards\NRF52_DK\obj\zfp_lib_Debug\libada_drivers_library.a(nrf-timers.o)
 .ARM.attributes
                0x00000000000002af       0x32 C:\GNAT\Ada_Drivers_Library\boards\NRF52_DK\obj\zfp_lib_Debug\libada_drivers_library.a(nrf-twi.o)
 .ARM.attributes
                0x00000000000002e1       0x32 C:\GNAT\Ada_Drivers_Library\boards\NRF52_DK\obj\zfp_lib_Debug\libada_drivers_library.a(nrf-uart.o)
 .ARM.attributes
                0x0000000000000313       0x32 C:\GNAT\Ada_Drivers_Library\boards\NRF52_DK\obj\zfp_lib_Debug\libada_drivers_library.a(nrf52_dk-buttons.o)
 .ARM.attributes
                0x0000000000000345       0x32 C:\GNAT\Ada_Drivers_Library\boards\NRF52_DK\obj\zfp_lib_Debug\libada_drivers_library.a(nrf52_dk-leds.o)
 .ARM.attributes
                0x0000000000000377       0x32 C:\GNAT\Ada_Drivers_Library\boards\NRF52_DK\obj\zfp_lib_Debug\libada_drivers_library.a(nrf52_dk-time.o)
 .ARM.attributes
                0x00000000000003a9       0x32 C:\GNAT\Ada_Drivers_Library\boards\NRF52_DK\obj\zfp_lib_Debug\libada_drivers_library.a(nrf_svd-gpio.o)
 .ARM.attributes
                0x00000000000003db       0x32 C:\GNAT\Ada_Drivers_Library\boards\NRF52_DK\obj\zfp_lib_Debug\libada_drivers_library.a(nrf_svd-twi.o)
 .ARM.attributes
                0x000000000000040d       0x37 C:\GNAT\Ada_Drivers_Library\boards\NRF52_DK\obj\zfp_lib_Debug\libada_drivers_library.a(hal-gpio.o)
 .ARM.attributes
                0x0000000000000444       0x37 C:\GNAT\Ada_Drivers_Library\boards\NRF52_DK\obj\zfp_lib_Debug\libada_drivers_library.a(hal-i2c.o)
 .ARM.attributes
                0x000000000000047b       0x32 C:\GNAT\Ada_Drivers_Library\boards\NRF52_DK\obj\zfp_lib_Debug\libada_drivers_library.a(hal-spi.o)
 .ARM.attributes
                0x00000000000004ad       0x37 C:\GNAT\Ada_Drivers_Library\boards\NRF52_DK\obj\zfp_lib_Debug\libada_drivers_library.a(hal-time.o)
 .ARM.attributes
                0x00000000000004e4       0x32 C:\GNAT\Ada_Drivers_Library\boards\NRF52_DK\obj\zfp_lib_Debug\libada_drivers_library.a(hal-uart.o)
 .ARM.attributes
                0x0000000000000516       0x32 C:\gnat\2020-arm-elf\arm-eabi\lib\gnat\zfp-cortex-m4f\adalib\libgnat.a(a-elchha.o)
 .ARM.attributes
                0x0000000000000548       0x25 C:\gnat\2020-arm-elf\arm-eabi\lib\gnat\zfp-cortex-m4f\adalib\libgnat.a(breakpoint_handler-cortexm.o)
 .ARM.attributes
                0x000000000000056d       0x32 C:\gnat\2020-arm-elf\arm-eabi\lib\gnat\zfp-cortex-m4f\adalib\libgnat.a(g-io.o)
 .ARM.attributes
                0x000000000000059f       0x32 C:\gnat\2020-arm-elf\arm-eabi\lib\gnat\zfp-cortex-m4f\adalib\libgnat.a(s-assert.o)
 .ARM.attributes
                0x00000000000005d1       0x32 C:\gnat\2020-arm-elf\arm-eabi\lib\gnat\zfp-cortex-m4f\adalib\libgnat.a(s-macres.o)
 .ARM.attributes
                0x0000000000000603       0x32 C:\gnat\2020-arm-elf\arm-eabi\lib\gnat\zfp-cortex-m4f\adalib\libgnat.a(s-memcop.o)
 .ARM.attributes
                0x0000000000000635       0x32 C:\gnat\2020-arm-elf\arm-eabi\lib\gnat\zfp-cortex-m4f\adalib\libgnat.a(s-memset.o)
 .ARM.attributes
                0x0000000000000667       0x32 C:\gnat\2020-arm-elf\arm-eabi\lib\gnat\zfp-cortex-m4f\adalib\libgnat.a(s-secsta.o)
 .ARM.attributes
                0x0000000000000699       0x32 C:\gnat\2020-arm-elf\arm-eabi\lib\gnat\zfp-cortex-m4f\adalib\libgnat.a(s-textio.o)
 .ARM.attributes
                0x00000000000006cb       0x37 C:\gnat\2020-arm-elf\arm-eabi\lib\gnat\zfp-cortex-m4f\adalib\libgnat.a(a-except.o)
 .ARM.attributes
                0x0000000000000702       0x32 C:\gnat\2020-arm-elf\arm-eabi\lib\gnat\zfp-cortex-m4f\adalib\libgnat.a(s-semiho.o)

.gnu.attributes
 *(.gnu.attributes)

/DISCARD/
 *(.note.GNU-stack)
 *(.gnu_debuglink)
 *(.gnu.lto_*)
OUTPUT(main elf32-littlearm)
LOAD linker stubs
